
/usr/lib64/libpthread-2.20.so:     file format elf64-littleaarch64


Disassembly of section .init:

0000000000004f28 <_init>:
    4f28:	a9bf7bfd 	stp	x29, x30, [sp,#-16]!
    4f2c:	910003fd 	mov	x29, sp
    4f30:	940001f8 	bl	5710 <__pthread_initialize_minimal>
    4f34:	a8c17bfd 	ldp	x29, x30, [sp],#16
    4f38:	d65f03c0 	ret

Disassembly of section .plt:

0000000000004f40 <memcpy@plt-0x20>:
    4f40:	a9bf7bf0 	stp	x16, x30, [sp,#-16]!
    4f44:	f0000150 	adrp	x16, 2f000 <__FRAME_END__+0x18e30>
    4f48:	f947fe11 	ldr	x17, [x16,#4088]
    4f4c:	913fe210 	add	x16, x16, #0xff8
    4f50:	d61f0220 	br	x17
    4f54:	d503201f 	nop
    4f58:	d503201f 	nop
    4f5c:	d503201f 	nop

0000000000004f60 <memcpy@plt>:
    4f60:	90000170 	adrp	x16, 30000 <_GLOBAL_OFFSET_TABLE_+0x88>
    4f64:	f9400211 	ldr	x17, [x16]
    4f68:	91000210 	add	x16, x16, #0x0
    4f6c:	d61f0220 	br	x17

0000000000004f70 <_exit@plt>:
    4f70:	90000170 	adrp	x16, 30000 <_GLOBAL_OFFSET_TABLE_+0x88>
    4f74:	f9400611 	ldr	x17, [x16,#8]
    4f78:	91002210 	add	x16, x16, #0x8
    4f7c:	d61f0220 	br	x17

0000000000004f80 <strlen@plt>:
    4f80:	90000170 	adrp	x16, 30000 <_GLOBAL_OFFSET_TABLE_+0x88>
    4f84:	f9400a11 	ldr	x17, [x16,#16]
    4f88:	91004210 	add	x16, x16, #0x10
    4f8c:	d61f0220 	br	x17

0000000000004f90 <exit@plt>:
    4f90:	90000170 	adrp	x16, 30000 <_GLOBAL_OFFSET_TABLE_+0x88>
    4f94:	f9400e11 	ldr	x17, [x16,#24]
    4f98:	91006210 	add	x16, x16, #0x18
    4f9c:	d61f0220 	br	x17

0000000000004fa0 <_setjmp@plt>:
    4fa0:	90000170 	adrp	x16, 30000 <_GLOBAL_OFFSET_TABLE_+0x88>
    4fa4:	f9401211 	ldr	x17, [x16,#32]
    4fa8:	91008210 	add	x16, x16, #0x20
    4fac:	d61f0220 	br	x17

0000000000004fb0 <__getrlimit@plt>:
    4fb0:	90000170 	adrp	x16, 30000 <_GLOBAL_OFFSET_TABLE_+0x88>
    4fb4:	f9401611 	ldr	x17, [x16,#40]
    4fb8:	9100a210 	add	x16, x16, #0x28
    4fbc:	d61f0220 	br	x17

0000000000004fc0 <__gettimeofday@plt>:
    4fc0:	90000170 	adrp	x16, 30000 <_GLOBAL_OFFSET_TABLE_+0x88>
    4fc4:	f9401a11 	ldr	x17, [x16,#48]
    4fc8:	9100c210 	add	x16, x16, #0x30
    4fcc:	d61f0220 	br	x17

0000000000004fd0 <twalk@plt>:
    4fd0:	90000170 	adrp	x16, 30000 <_GLOBAL_OFFSET_TABLE_+0x88>
    4fd4:	f9401e11 	ldr	x17, [x16,#56]
    4fd8:	9100e210 	add	x16, x16, #0x38
    4fdc:	d61f0220 	br	x17

0000000000004fe0 <__libc_dlclose@plt>:
    4fe0:	90000170 	adrp	x16, 30000 <_GLOBAL_OFFSET_TABLE_+0x88>
    4fe4:	f9402211 	ldr	x17, [x16,#64]
    4fe8:	91010210 	add	x16, x16, #0x40
    4fec:	d61f0220 	br	x17

0000000000004ff0 <__libc_fatal@plt>:
    4ff0:	90000170 	adrp	x16, 30000 <_GLOBAL_OFFSET_TABLE_+0x88>
    4ff4:	f9402611 	ldr	x17, [x16,#72]
    4ff8:	91012210 	add	x16, x16, #0x48
    4ffc:	d61f0220 	br	x17

0000000000005000 <__getpagesize@plt>:
    5000:	f0000150 	adrp	x16, 30000 <_GLOBAL_OFFSET_TABLE_+0x88>
    5004:	f9402a11 	ldr	x17, [x16,#80]
    5008:	91014210 	add	x16, x16, #0x50
    500c:	d61f0220 	br	x17

0000000000005010 <__cxa_finalize@plt>:
    5010:	f0000150 	adrp	x16, 30000 <_GLOBAL_OFFSET_TABLE_+0x88>
    5014:	f9402e11 	ldr	x17, [x16,#88]
    5018:	91016210 	add	x16, x16, #0x58
    501c:	d61f0220 	br	x17

0000000000005020 <sprintf@plt>:
    5020:	f0000150 	adrp	x16, 30000 <_GLOBAL_OFFSET_TABLE_+0x88>
    5024:	f9403211 	ldr	x17, [x16,#96]
    5028:	91018210 	add	x16, x16, #0x60
    502c:	d61f0220 	br	x17

0000000000005030 <getuid@plt>:
    5030:	f0000150 	adrp	x16, 30000 <_GLOBAL_OFFSET_TABLE_+0x88>
    5034:	f9403611 	ldr	x17, [x16,#104]
    5038:	9101a210 	add	x16, x16, #0x68
    503c:	d61f0220 	br	x17

0000000000005040 <tfind@plt>:
    5040:	f0000150 	adrp	x16, 30000 <_GLOBAL_OFFSET_TABLE_+0x88>
    5044:	f9403a11 	ldr	x17, [x16,#112]
    5048:	9101c210 	add	x16, x16, #0x70
    504c:	d61f0220 	br	x17

0000000000005050 <fclose@plt>:
    5050:	f0000150 	adrp	x16, 30000 <_GLOBAL_OFFSET_TABLE_+0x88>
    5054:	f9403e11 	ldr	x17, [x16,#120]
    5058:	9101e210 	add	x16, x16, #0x78
    505c:	d61f0220 	br	x17

0000000000005060 <__libc_system@plt>:
    5060:	f0000150 	adrp	x16, 30000 <_GLOBAL_OFFSET_TABLE_+0x88>
    5064:	f9404211 	ldr	x17, [x16,#128]
    5068:	91020210 	add	x16, x16, #0x80
    506c:	d61f0220 	br	x17

0000000000005070 <fopen@plt>:
    5070:	f0000150 	adrp	x16, 30000 <_GLOBAL_OFFSET_TABLE_+0x88>
    5074:	f9404611 	ldr	x17, [x16,#136]
    5078:	91022210 	add	x16, x16, #0x88
    507c:	d61f0220 	br	x17

0000000000005080 <malloc@plt>:
    5080:	f0000150 	adrp	x16, 30000 <_GLOBAL_OFFSET_TABLE_+0x88>
    5084:	f9404a11 	ldr	x17, [x16,#144]
    5088:	91024210 	add	x16, x16, #0x90
    508c:	d61f0220 	br	x17

0000000000005090 <memset@plt>:
    5090:	f0000150 	adrp	x16, 30000 <_GLOBAL_OFFSET_TABLE_+0x88>
    5094:	f9404e11 	ldr	x17, [x16,#152]
    5098:	91026210 	add	x16, x16, #0x98
    509c:	d61f0220 	br	x17

00000000000050a0 <__libc_fork@plt>:
    50a0:	f0000150 	adrp	x16, 30000 <_GLOBAL_OFFSET_TABLE_+0x88>
    50a4:	f9405211 	ldr	x17, [x16,#160]
    50a8:	91028210 	add	x16, x16, #0xa0
    50ac:	d61f0220 	br	x17

00000000000050b0 <__endmntent@plt>:
    50b0:	f0000150 	adrp	x16, 30000 <_GLOBAL_OFFSET_TABLE_+0x88>
    50b4:	f9405611 	ldr	x17, [x16,#168]
    50b8:	9102a210 	add	x16, x16, #0xa8
    50bc:	d61f0220 	br	x17

00000000000050c0 <tsearch@plt>:
    50c0:	f0000150 	adrp	x16, 30000 <_GLOBAL_OFFSET_TABLE_+0x88>
    50c4:	f9405a11 	ldr	x17, [x16,#176]
    50c8:	9102c210 	add	x16, x16, #0xb0
    50cc:	d61f0220 	br	x17

00000000000050d0 <sscanf@plt>:
    50d0:	f0000150 	adrp	x16, 30000 <_GLOBAL_OFFSET_TABLE_+0x88>
    50d4:	f9405e11 	ldr	x17, [x16,#184]
    50d8:	9102e210 	add	x16, x16, #0xb8
    50dc:	d61f0220 	br	x17

00000000000050e0 <_dl_deallocate_tls@plt>:
    50e0:	f0000150 	adrp	x16, 30000 <_GLOBAL_OFFSET_TABLE_+0x88>
    50e4:	f9406211 	ldr	x17, [x16,#192]
    50e8:	91030210 	add	x16, x16, #0xc0
    50ec:	d61f0220 	br	x17

00000000000050f0 <calloc@plt>:
    50f0:	f0000150 	adrp	x16, 30000 <_GLOBAL_OFFSET_TABLE_+0x88>
    50f4:	f9406611 	ldr	x17, [x16,#200]
    50f8:	91032210 	add	x16, x16, #0xc8
    50fc:	d61f0220 	br	x17

0000000000005100 <__call_tls_dtors@plt>:
    5100:	f0000150 	adrp	x16, 30000 <_GLOBAL_OFFSET_TABLE_+0x88>
    5104:	f9406a11 	ldr	x17, [x16,#208]
    5108:	91034210 	add	x16, x16, #0xd0
    510c:	d61f0220 	br	x17

0000000000005110 <realloc@plt>:
    5110:	f0000150 	adrp	x16, 30000 <_GLOBAL_OFFSET_TABLE_+0x88>
    5114:	f9406e11 	ldr	x17, [x16,#216]
    5118:	91036210 	add	x16, x16, #0xd8
    511c:	d61f0220 	br	x17

0000000000005120 <__libc_thread_freeres@plt>:
    5120:	f0000150 	adrp	x16, 30000 <_GLOBAL_OFFSET_TABLE_+0x88>
    5124:	f9407211 	ldr	x17, [x16,#224]
    5128:	91038210 	add	x16, x16, #0xe0
    512c:	d61f0220 	br	x17

0000000000005130 <__sched_getparam@plt>:
    5130:	f0000150 	adrp	x16, 30000 <_GLOBAL_OFFSET_TABLE_+0x88>
    5134:	f9407611 	ldr	x17, [x16,#232]
    5138:	9103a210 	add	x16, x16, #0xe8
    513c:	d61f0220 	br	x17

0000000000005140 <sched_get_priority_max@plt>:
    5140:	f0000150 	adrp	x16, 30000 <_GLOBAL_OFFSET_TABLE_+0x88>
    5144:	f9407a11 	ldr	x17, [x16,#240]
    5148:	9103c210 	add	x16, x16, #0xf0
    514c:	d61f0220 	br	x17

0000000000005150 <__statfs@plt>:
    5150:	f0000150 	adrp	x16, 30000 <_GLOBAL_OFFSET_TABLE_+0x88>
    5154:	f9407e11 	ldr	x17, [x16,#248]
    5158:	9103e210 	add	x16, x16, #0xf8
    515c:	d61f0220 	br	x17

0000000000005160 <tdelete@plt>:
    5160:	f0000150 	adrp	x16, 30000 <_GLOBAL_OFFSET_TABLE_+0x88>
    5164:	f9408211 	ldr	x17, [x16,#256]
    5168:	91040210 	add	x16, x16, #0x100
    516c:	d61f0220 	br	x17

0000000000005170 <abort@plt>:
    5170:	f0000150 	adrp	x16, 30000 <_GLOBAL_OFFSET_TABLE_+0x88>
    5174:	f9408611 	ldr	x17, [x16,#264]
    5178:	91042210 	add	x16, x16, #0x108
    517c:	d61f0220 	br	x17

0000000000005180 <__sched_get_priority_min@plt>:
    5180:	f0000150 	adrp	x16, 30000 <_GLOBAL_OFFSET_TABLE_+0x88>
    5184:	f9408a11 	ldr	x17, [x16,#272]
    5188:	91044210 	add	x16, x16, #0x110
    518c:	d61f0220 	br	x17

0000000000005190 <__libc_current_sigrtmax_private@plt>:
    5190:	f0000150 	adrp	x16, 30000 <_GLOBAL_OFFSET_TABLE_+0x88>
    5194:	f9408e11 	ldr	x17, [x16,#280]
    5198:	91046210 	add	x16, x16, #0x118
    519c:	d61f0220 	br	x17

00000000000051a0 <sched_setparam@plt>:
    51a0:	f0000150 	adrp	x16, 30000 <_GLOBAL_OFFSET_TABLE_+0x88>
    51a4:	f9409211 	ldr	x17, [x16,#288]
    51a8:	91048210 	add	x16, x16, #0x120
    51ac:	d61f0220 	br	x17

00000000000051b0 <__libc_dlopen_mode@plt>:
    51b0:	f0000150 	adrp	x16, 30000 <_GLOBAL_OFFSET_TABLE_+0x88>
    51b4:	f9409611 	ldr	x17, [x16,#296]
    51b8:	9104a210 	add	x16, x16, #0x128
    51bc:	d61f0220 	br	x17

00000000000051c0 <strcmp@plt>:
    51c0:	f0000150 	adrp	x16, 30000 <_GLOBAL_OFFSET_TABLE_+0x88>
    51c4:	f9409a11 	ldr	x17, [x16,#304]
    51c8:	9104c210 	add	x16, x16, #0x130
    51cc:	d61f0220 	br	x17

00000000000051d0 <mmap@plt>:
    51d0:	f0000150 	adrp	x16, 30000 <_GLOBAL_OFFSET_TABLE_+0x88>
    51d4:	f9409e11 	ldr	x17, [x16,#312]
    51d8:	9104e210 	add	x16, x16, #0x138
    51dc:	d61f0220 	br	x17

00000000000051e0 <_dl_make_stack_executable@plt>:
    51e0:	f0000150 	adrp	x16, 30000 <_GLOBAL_OFFSET_TABLE_+0x88>
    51e4:	f940a211 	ldr	x17, [x16,#320]
    51e8:	91050210 	add	x16, x16, #0x140
    51ec:	d61f0220 	br	x17

00000000000051f0 <sched_yield@plt>:
    51f0:	f0000150 	adrp	x16, 30000 <_GLOBAL_OFFSET_TABLE_+0x88>
    51f4:	f940a611 	ldr	x17, [x16,#328]
    51f8:	91052210 	add	x16, x16, #0x148
    51fc:	d61f0220 	br	x17

0000000000005200 <__libc_pthread_init@plt>:
    5200:	f0000150 	adrp	x16, 30000 <_GLOBAL_OFFSET_TABLE_+0x88>
    5204:	f940aa11 	ldr	x17, [x16,#336]
    5208:	91054210 	add	x16, x16, #0x150
    520c:	d61f0220 	br	x17

0000000000005210 <__ctype_init@plt>:
    5210:	f0000150 	adrp	x16, 30000 <_GLOBAL_OFFSET_TABLE_+0x88>
    5214:	f940ae11 	ldr	x17, [x16,#344]
    5218:	91056210 	add	x16, x16, #0x158
    521c:	d61f0220 	br	x17

0000000000005220 <free@plt>:
    5220:	f0000150 	adrp	x16, 30000 <_GLOBAL_OFFSET_TABLE_+0x88>
    5224:	f940b211 	ldr	x17, [x16,#352]
    5228:	91058210 	add	x16, x16, #0x160
    522c:	d61f0220 	br	x17

0000000000005230 <sched_get_priority_min@plt>:
    5230:	f0000150 	adrp	x16, 30000 <_GLOBAL_OFFSET_TABLE_+0x88>
    5234:	f940b611 	ldr	x17, [x16,#360]
    5238:	9105a210 	add	x16, x16, #0x168
    523c:	d61f0220 	br	x17

0000000000005240 <__setmntent@plt>:
    5240:	f0000150 	adrp	x16, 30000 <_GLOBAL_OFFSET_TABLE_+0x88>
    5244:	f940ba11 	ldr	x17, [x16,#368]
    5248:	9105c210 	add	x16, x16, #0x170
    524c:	d61f0220 	br	x17

0000000000005250 <__getmntent_r@plt>:
    5250:	f0000150 	adrp	x16, 30000 <_GLOBAL_OFFSET_TABLE_+0x88>
    5254:	f940be11 	ldr	x17, [x16,#376]
    5258:	9105e210 	add	x16, x16, #0x178
    525c:	d61f0220 	br	x17

0000000000005260 <mempcpy@plt>:
    5260:	f0000150 	adrp	x16, 30000 <_GLOBAL_OFFSET_TABLE_+0x88>
    5264:	f940c211 	ldr	x17, [x16,#384]
    5268:	91060210 	add	x16, x16, #0x180
    526c:	d61f0220 	br	x17

0000000000005270 <__fxstat64@plt>:
    5270:	f0000150 	adrp	x16, 30000 <_GLOBAL_OFFSET_TABLE_+0x88>
    5274:	f940c611 	ldr	x17, [x16,#392]
    5278:	91062210 	add	x16, x16, #0x188
    527c:	d61f0220 	br	x17

0000000000005280 <__libc_dlsym@plt>:
    5280:	f0000150 	adrp	x16, 30000 <_GLOBAL_OFFSET_TABLE_+0x88>
    5284:	f940ca11 	ldr	x17, [x16,#400]
    5288:	91064210 	add	x16, x16, #0x190
    528c:	d61f0220 	br	x17

0000000000005290 <__sched_setscheduler@plt>:
    5290:	f0000150 	adrp	x16, 30000 <_GLOBAL_OFFSET_TABLE_+0x88>
    5294:	f940ce11 	ldr	x17, [x16,#408]
    5298:	91066210 	add	x16, x16, #0x198
    529c:	d61f0220 	br	x17

00000000000052a0 <__libc_current_sigrtmin_private@plt>:
    52a0:	f0000150 	adrp	x16, 30000 <_GLOBAL_OFFSET_TABLE_+0x88>
    52a4:	f940d211 	ldr	x17, [x16,#416]
    52a8:	91068210 	add	x16, x16, #0x1a0
    52ac:	d61f0220 	br	x17

00000000000052b0 <munmap@plt>:
    52b0:	f0000150 	adrp	x16, 30000 <_GLOBAL_OFFSET_TABLE_+0x88>
    52b4:	f940d611 	ldr	x17, [x16,#424]
    52b8:	9106a210 	add	x16, x16, #0x1a8
    52bc:	d61f0220 	br	x17

00000000000052c0 <getrlimit@plt>:
    52c0:	f0000150 	adrp	x16, 30000 <_GLOBAL_OFFSET_TABLE_+0x88>
    52c4:	f940da11 	ldr	x17, [x16,#432]
    52c8:	9106c210 	add	x16, x16, #0x1b0
    52cc:	d61f0220 	br	x17

00000000000052d0 <__madvise@plt>:
    52d0:	f0000150 	adrp	x16, 30000 <_GLOBAL_OFFSET_TABLE_+0x88>
    52d4:	f940de11 	ldr	x17, [x16,#440]
    52d8:	9106e210 	add	x16, x16, #0x1b8
    52dc:	d61f0220 	br	x17

00000000000052e0 <__libc_dl_error_tsd@plt>:
    52e0:	f0000150 	adrp	x16, 30000 <_GLOBAL_OFFSET_TABLE_+0x88>
    52e4:	f940e211 	ldr	x17, [x16,#448]
    52e8:	91070210 	add	x16, x16, #0x1c0
    52ec:	d61f0220 	br	x17

00000000000052f0 <__mktemp@plt>:
    52f0:	f0000150 	adrp	x16, 30000 <_GLOBAL_OFFSET_TABLE_+0x88>
    52f4:	f940e611 	ldr	x17, [x16,#456]
    52f8:	91072210 	add	x16, x16, #0x1c8
    52fc:	d61f0220 	br	x17

0000000000005300 <__clone@plt>:
    5300:	f0000150 	adrp	x16, 30000 <_GLOBAL_OFFSET_TABLE_+0x88>
    5304:	f940ea11 	ldr	x17, [x16,#464]
    5308:	91074210 	add	x16, x16, #0x1d0
    530c:	d61f0220 	br	x17

0000000000005310 <_dl_allocate_tls@plt>:
    5310:	f0000150 	adrp	x16, 30000 <_GLOBAL_OFFSET_TABLE_+0x88>
    5314:	f940ee11 	ldr	x17, [x16,#472]
    5318:	91076210 	add	x16, x16, #0x1d8
    531c:	d61f0220 	br	x17

0000000000005320 <link@plt>:
    5320:	f0000150 	adrp	x16, 30000 <_GLOBAL_OFFSET_TABLE_+0x88>
    5324:	f940f211 	ldr	x17, [x16,#480]
    5328:	91078210 	add	x16, x16, #0x1e0
    532c:	d61f0220 	br	x17

0000000000005330 <__sched_getscheduler@plt>:
    5330:	f0000150 	adrp	x16, 30000 <_GLOBAL_OFFSET_TABLE_+0x88>
    5334:	f940f611 	ldr	x17, [x16,#488]
    5338:	9107a210 	add	x16, x16, #0x1e8
    533c:	d61f0220 	br	x17

0000000000005340 <_dl_get_tls_static_info@plt>:
    5340:	f0000150 	adrp	x16, 30000 <_GLOBAL_OFFSET_TABLE_+0x88>
    5344:	f940fa11 	ldr	x17, [x16,#496]
    5348:	9107c210 	add	x16, x16, #0x1f0
    534c:	d61f0220 	br	x17

0000000000005350 <__sched_get_priority_max@plt>:
    5350:	f0000150 	adrp	x16, 30000 <_GLOBAL_OFFSET_TABLE_+0x88>
    5354:	f940fe11 	ldr	x17, [x16,#504]
    5358:	9107e210 	add	x16, x16, #0x1f8
    535c:	d61f0220 	br	x17

0000000000005360 <__libc_alloca_cutoff@plt>:
    5360:	f0000150 	adrp	x16, 30000 <_GLOBAL_OFFSET_TABLE_+0x88>
    5364:	f9410211 	ldr	x17, [x16,#512]
    5368:	91080210 	add	x16, x16, #0x200
    536c:	d61f0220 	br	x17

0000000000005370 <_dl_allocate_tls_init@plt>:
    5370:	f0000150 	adrp	x16, 30000 <_GLOBAL_OFFSET_TABLE_+0x88>
    5374:	f9410611 	ldr	x17, [x16,#520]
    5378:	91082210 	add	x16, x16, #0x208
    537c:	d61f0220 	br	x17

0000000000005380 <prctl@plt>:
    5380:	f0000150 	adrp	x16, 30000 <_GLOBAL_OFFSET_TABLE_+0x88>
    5384:	f9410a11 	ldr	x17, [x16,#528]
    5388:	91084210 	add	x16, x16, #0x210
    538c:	d61f0220 	br	x17

0000000000005390 <__libc_allocate_rtsig_private@plt>:
    5390:	f0000150 	adrp	x16, 30000 <_GLOBAL_OFFSET_TABLE_+0x88>
    5394:	f9410e11 	ldr	x17, [x16,#536]
    5398:	91086210 	add	x16, x16, #0x218
    539c:	d61f0220 	br	x17

00000000000053a0 <__libc_longjmp@plt>:
    53a0:	f0000150 	adrp	x16, 30000 <_GLOBAL_OFFSET_TABLE_+0x88>
    53a4:	f9411211 	ldr	x17, [x16,#544]
    53a8:	91088210 	add	x16, x16, #0x220
    53ac:	d61f0220 	br	x17

00000000000053b0 <mprotect@plt>:
    53b0:	f0000150 	adrp	x16, 30000 <_GLOBAL_OFFSET_TABLE_+0x88>
    53b4:	f9411611 	ldr	x17, [x16,#552]
    53b8:	9108a210 	add	x16, x16, #0x228
    53bc:	d61f0220 	br	x17

00000000000053c0 <__getdelim@plt>:
    53c0:	f0000150 	adrp	x16, 30000 <_GLOBAL_OFFSET_TABLE_+0x88>
    53c4:	f9411a11 	ldr	x17, [x16,#560]
    53c8:	9108c210 	add	x16, x16, #0x230
    53cc:	d61f0220 	br	x17

00000000000053d0 <unlink@plt>:
    53d0:	f0000150 	adrp	x16, 30000 <_GLOBAL_OFFSET_TABLE_+0x88>
    53d4:	f9411e11 	ldr	x17, [x16,#568]
    53d8:	9108e210 	add	x16, x16, #0x238
    53dc:	d61f0220 	br	x17

00000000000053e0 <h_errno@plt>:
    53e0:	a9bf0fe2 	stp	x2, x3, [sp,#-16]!
    53e4:	d0000142 	adrp	x2, 2f000 <__FRAME_END__+0x18e30>
    53e8:	d0000143 	adrp	x3, 2f000 <__FRAME_END__+0x18e30>
    53ec:	f947f042 	ldr	x2, [x2,#4064]
    53f0:	913fa063 	add	x3, x3, #0xfe8
    53f4:	d61f0040 	br	x2
    53f8:	d503201f 	nop
    53fc:	d503201f 	nop

Disassembly of section .text:

0000000000005400 <deregister_tm_clones>:
    5400:	f0000141 	adrp	x1, 30000 <_GLOBAL_OFFSET_TABLE_+0x88>
    5404:	f0000140 	adrp	x0, 30000 <_GLOBAL_OFFSET_TABLE_+0x88>
    5408:	910a0021 	add	x1, x1, #0x280
    540c:	910a0000 	add	x0, x0, #0x280
    5410:	91001c21 	add	x1, x1, #0x7
    5414:	a9bf7bfd 	stp	x29, x30, [sp,#-16]!
    5418:	cb000021 	sub	x1, x1, x0
    541c:	f100383f 	cmp	x1, #0xe
    5420:	910003fd 	mov	x29, sp
    5424:	540000a9 	b.ls	5438 <deregister_tm_clones+0x38>
    5428:	d0000141 	adrp	x1, 2f000 <__FRAME_END__+0x18e30>
    542c:	f947c021 	ldr	x1, [x1,#3968]
    5430:	b4000041 	cbz	x1, 5438 <deregister_tm_clones+0x38>
    5434:	d63f0020 	blr	x1
    5438:	a8c17bfd 	ldp	x29, x30, [sp],#16
    543c:	d65f03c0 	ret

0000000000005440 <register_tm_clones>:
    5440:	f0000140 	adrp	x0, 30000 <_GLOBAL_OFFSET_TABLE_+0x88>
    5444:	f0000141 	adrp	x1, 30000 <_GLOBAL_OFFSET_TABLE_+0x88>
    5448:	910a0000 	add	x0, x0, #0x280
    544c:	910a0021 	add	x1, x1, #0x280
    5450:	cb000021 	sub	x1, x1, x0
    5454:	9343fc22 	asr	x2, x1, #3
    5458:	a9bf7bfd 	stp	x29, x30, [sp,#-16]!
    545c:	8b42fc42 	add	x2, x2, x2, lsr #63
    5460:	9341fc41 	asr	x1, x2, #1
    5464:	910003fd 	mov	x29, sp
    5468:	b40000a1 	cbz	x1, 547c <register_tm_clones+0x3c>
    546c:	d0000142 	adrp	x2, 2f000 <__FRAME_END__+0x18e30>
    5470:	f947e842 	ldr	x2, [x2,#4048]
    5474:	b4000042 	cbz	x2, 547c <register_tm_clones+0x3c>
    5478:	d63f0040 	blr	x2
    547c:	a8c17bfd 	ldp	x29, x30, [sp],#16
    5480:	d65f03c0 	ret

0000000000005484 <__do_global_dtors_aux>:
    5484:	a9be7bfd 	stp	x29, x30, [sp,#-32]!
    5488:	910003fd 	mov	x29, sp
    548c:	f9000bf3 	str	x19, [sp,#16]
    5490:	f0000153 	adrp	x19, 30000 <_GLOBAL_OFFSET_TABLE_+0x88>
    5494:	394a0260 	ldrb	w0, [x19,#640]
    5498:	35000140 	cbnz	w0, 54c0 <__do_global_dtors_aux+0x3c>
    549c:	d0000140 	adrp	x0, 2f000 <__FRAME_END__+0x18e30>
    54a0:	f947c800 	ldr	x0, [x0,#3984]
    54a4:	b4000080 	cbz	x0, 54b4 <__do_global_dtors_aux+0x30>
    54a8:	d0000140 	adrp	x0, 2f000 <__FRAME_END__+0x18e30>
    54ac:	912e0000 	add	x0, x0, #0xb80
    54b0:	97fffed8 	bl	5010 <__cxa_finalize@plt>
    54b4:	97ffffd3 	bl	5400 <deregister_tm_clones>
    54b8:	52800020 	mov	w0, #0x1                   	// #1
    54bc:	390a0260 	strb	w0, [x19,#640]
    54c0:	f9400bf3 	ldr	x19, [sp,#16]
    54c4:	a8c27bfd 	ldp	x29, x30, [sp],#32
    54c8:	d65f03c0 	ret

00000000000054cc <frame_dummy>:
    54cc:	a9bf7bfd 	stp	x29, x30, [sp,#-16]!
    54d0:	d0000140 	adrp	x0, 2f000 <__FRAME_END__+0x18e30>
    54d4:	910003fd 	mov	x29, sp
    54d8:	912de000 	add	x0, x0, #0xb78
    54dc:	f9400001 	ldr	x1, [x0]
    54e0:	b5000061 	cbnz	x1, 54ec <frame_dummy+0x20>
    54e4:	a8c17bfd 	ldp	x29, x30, [sp],#16
    54e8:	17ffffd6 	b	5440 <register_tm_clones>
    54ec:	d0000141 	adrp	x1, 2f000 <__FRAME_END__+0x18e30>
    54f0:	f947e421 	ldr	x1, [x1,#4040]
    54f4:	b4ffff81 	cbz	x1, 54e4 <frame_dummy+0x18>
    54f8:	d63f0020 	blr	x1
    54fc:	17fffffa 	b	54e4 <frame_dummy+0x18>

0000000000005500 <__nptl_set_robust>:
    5500:	91038000 	add	x0, x0, #0xe0
    5504:	d2800301 	mov	x1, #0x18                  	// #24
    5508:	d2800c68 	mov	x8, #0x63                  	// #99
    550c:	d4000001 	svc	#0x0
    5510:	d65f03c0 	ret

0000000000005514 <sigcancel_handler>:
    5514:	d53bd043 	mrs	x3, tpidr_el0
    5518:	7100801f 	cmp	w0, #0x20
    551c:	a9be7bfd 	stp	x29, x30, [sp,#-32]!
    5520:	d11bc062 	sub	x2, x3, #0x6f0
    5524:	910003fd 	mov	x29, sp
    5528:	b940d440 	ldr	w0, [x2,#212]
    552c:	54000060 	b.eq	5538 <sigcancel_handler+0x24>
    5530:	a8c27bfd 	ldp	x29, x30, [sp],#32
    5534:	d65f03c0 	ret
    5538:	93407c00 	sxtw	x0, w0
    553c:	b9401024 	ldr	w4, [x1,#16]
    5540:	ca80fc05 	eor	x5, x0, x0, asr #63
    5544:	cb80fca0 	sub	x0, x5, x0, asr #63
    5548:	6b00009f 	cmp	w4, w0
    554c:	54ffff21 	b.ne	5530 <sigcancel_handler+0x1c>
    5550:	b9400820 	ldr	w0, [x1,#8]
    5554:	3100181f 	cmn	w0, #0x6
    5558:	54fffec1 	b.ne	5530 <sigcancel_handler+0x1c>
    555c:	b9410840 	ldr	w0, [x2,#264]
    5560:	321e0404 	orr	w4, w0, #0xc
    5564:	6b04001f 	cmp	w0, w4
    5568:	54fffe40 	b.eq	5530 <sigcancel_handler+0x1c>
    556c:	3727fe20 	tbnz	w0, #4, 5530 <sigcancel_handler+0x1c>
    5570:	910083a6 	add	x6, x29, #0x20
    5574:	91042045 	add	x5, x2, #0x108
    5578:	2a0003e1 	mov	w1, w0
    557c:	b81fccc0 	str	w0, [x6,#-4]!
    5580:	885ffca7 	ldaxr	w7, [x5]
    5584:	6b0100ff 	cmp	w7, w1
    5588:	54000061 	b.ne	5594 <sigcancel_handler+0x80>
    558c:	88087ca4 	stxr	w8, w4, [x5]
    5590:	35ffff88 	cbnz	w8, 5580 <sigcancel_handler+0x6c>
    5594:	54000040 	b.eq	559c <sigcancel_handler+0x88>
    5598:	b9001fa7 	str	w7, [x29,#28]
    559c:	b9401fa1 	ldr	w1, [x29,#28]
    55a0:	6b01001f 	cmp	w0, w1
    55a4:	54000060 	b.eq	55b0 <sigcancel_handler+0x9c>
    55a8:	2a0103e0 	mov	w0, w1
    55ac:	17ffffed 	b	5560 <sigcancel_handler+0x4c>
    55b0:	92800001 	mov	x1, #0xffffffffffffffff    	// #-1
    55b4:	f9021441 	str	x1, [x2,#1064]
    55b8:	360ffbc0 	tbz	w0, #1, 5530 <sigcancel_handler+0x1c>
    55bc:	d117a063 	sub	x3, x3, #0x5e8
    55c0:	b9400060 	ldr	w0, [x3]
    55c4:	b9001fa0 	str	w0, [x29,#28]
    55c8:	321c0004 	orr	w4, w0, #0x10
    55cc:	885ffca1 	ldaxr	w1, [x5]
    55d0:	6b00003f 	cmp	w1, w0
    55d4:	54000061 	b.ne	55e0 <sigcancel_handler+0xcc>
    55d8:	88077ca4 	stxr	w7, w4, [x5]
    55dc:	35ffff87 	cbnz	w7, 55cc <sigcancel_handler+0xb8>
    55e0:	54000060 	b.eq	55ec <sigcancel_handler+0xd8>
    55e4:	b90000c1 	str	w1, [x6]
    55e8:	17fffff6 	b	55c0 <sigcancel_handler+0xac>
    55ec:	f9408040 	ldr	x0, [x2,#256]
    55f0:	940027c5 	bl	f504 <__pthread_unwind>

00000000000055f4 <sighandler_setxid>:
    55f4:	a9bd7bfd 	stp	x29, x30, [sp,#-48]!
    55f8:	7100841f 	cmp	w0, #0x21
    55fc:	910003fd 	mov	x29, sp
    5600:	a90153f3 	stp	x19, x20, [sp,#16]
    5604:	d53bd053 	mrs	x19, tpidr_el0
    5608:	d11bc273 	sub	x19, x19, #0x6f0
    560c:	b940d660 	ldr	w0, [x19,#212]
    5610:	54000080 	b.eq	5620 <sighandler_setxid+0x2c>
    5614:	a94153f3 	ldp	x19, x20, [sp,#16]
    5618:	a8c37bfd 	ldp	x29, x30, [sp],#48
    561c:	d65f03c0 	ret
    5620:	93407c00 	sxtw	x0, w0
    5624:	b9401022 	ldr	w2, [x1,#16]
    5628:	ca80fc03 	eor	x3, x0, x0, asr #63
    562c:	cb80fc60 	sub	x0, x3, x0, asr #63
    5630:	6b00005f 	cmp	w2, w0
    5634:	54ffff01 	b.ne	5614 <sighandler_setxid+0x20>
    5638:	b9400820 	ldr	w0, [x1,#8]
    563c:	3100181f 	cmn	w0, #0x6
    5640:	54fffea1 	b.ne	5614 <sighandler_setxid+0x20>
    5644:	f0000174 	adrp	x20, 34000 <__GI___pthread_keys+0x3d78>
    5648:	f9418a83 	ldr	x3, [x20,#784]
    564c:	f9400460 	ldr	x0, [x3,#8]
    5650:	f9400861 	ldr	x1, [x3,#16]
    5654:	f9400c62 	ldr	x2, [x3,#24]
    5658:	b9800068 	ldrsw	x8, [x3]
    565c:	d4000001 	svc	#0x0
    5660:	aa0003e1 	mov	x1, x0
    5664:	f9418a80 	ldr	x0, [x20,#784]
    5668:	3140043f 	cmn	w1, #0x1, lsl #12
    566c:	5a8197e1 	csneg	w1, wzr, w1, ls
    5670:	9400037a 	bl	6458 <__nptl_setxid_error>
    5674:	91042261 	add	x1, x19, #0x108
    5678:	9100b3a5 	add	x5, x29, #0x2c
    567c:	b9410a60 	ldr	w0, [x19,#264]
    5680:	b9002fa0 	str	w0, [x29,#44]
    5684:	12197803 	and	w3, w0, #0xffffffbf
    5688:	2a0003e2 	mov	w2, w0
    568c:	885ffc24 	ldaxr	w4, [x1]
    5690:	6b02009f 	cmp	w4, w2
    5694:	54000061 	b.ne	56a0 <sighandler_setxid+0xac>
    5698:	88067c23 	stxr	w6, w3, [x1]
    569c:	35ffff86 	cbnz	w6, 568c <sighandler_setxid+0x98>
    56a0:	54000040 	b.eq	56a8 <sighandler_setxid+0xb4>
    56a4:	b90000a4 	str	w4, [x5]
    56a8:	b9402fa2 	ldr	w2, [x29,#44]
    56ac:	6b02001f 	cmp	w0, w2
    56b0:	54fffe61 	b.ne	567c <sighandler_setxid+0x88>
    56b4:	52800021 	mov	w1, #0x1                   	// #1
    56b8:	91107260 	add	x0, x19, #0x41c
    56bc:	b9041e61 	str	w1, [x19,#1052]
    56c0:	d2800022 	mov	x2, #0x1                   	// #1
    56c4:	d2801021 	mov	x1, #0x81                  	// #129
    56c8:	d2800003 	mov	x3, #0x0                   	// #0
    56cc:	d2800c48 	mov	x8, #0x62                  	// #98
    56d0:	d4000001 	svc	#0x0
    56d4:	f9418a80 	ldr	x0, [x20,#784]
    56d8:	91008000 	add	x0, x0, #0x20
    56dc:	885ffc04 	ldaxr	w4, [x0]
    56e0:	51000485 	sub	w5, w4, #0x1
    56e4:	88067c05 	stxr	w6, w5, [x0]
    56e8:	35ffffa6 	cbnz	w6, 56dc <sighandler_setxid+0xe8>
    56ec:	b9002fa4 	str	w4, [x29,#44]
    56f0:	b9402fa0 	ldr	w0, [x29,#44]
    56f4:	7100041f 	cmp	w0, #0x1
    56f8:	54fff8e1 	b.ne	5614 <sighandler_setxid+0x20>
    56fc:	f0000160 	adrp	x0, 34000 <__GI___pthread_keys+0x3d78>
    5700:	f9418800 	ldr	x0, [x0,#784]
    5704:	91008000 	add	x0, x0, #0x20
    5708:	d4000001 	svc	#0x0
    570c:	17ffffc2 	b	5614 <sighandler_setxid+0x20>

0000000000005710 <__pthread_initialize_minimal>:
    5710:	a9b17bfd 	stp	x29, x30, [sp,#-240]!
    5714:	d53bd044 	mrs	x4, tpidr_el0
    5718:	d2800c08 	mov	x8, #0x60                  	// #96
    571c:	910003fd 	mov	x29, sp
    5720:	d11bc083 	sub	x3, x4, #0x6f0
    5724:	91034060 	add	x0, x3, #0xd0
    5728:	a90153f3 	stp	x19, x20, [sp,#16]
    572c:	f90013f5 	str	x21, [sp,#32]
    5730:	d4000001 	svc	#0x0
    5734:	91038062 	add	x2, x3, #0xe0
    5738:	91044061 	add	x1, x3, #0x110
    573c:	b900d060 	str	w0, [x3,#208]
    5740:	d2800c68 	mov	x8, #0x63                  	// #99
    5744:	b900d460 	str	w0, [x3,#212]
    5748:	52800020 	mov	w0, #0x1                   	// #1
    574c:	f9018861 	str	x1, [x3,#784]
    5750:	d2800301 	mov	x1, #0x18                  	// #24
    5754:	39104860 	strb	w0, [x3,#1042]
    5758:	aa0203e0 	mov	x0, x2
    575c:	f9006c62 	str	x2, [x3,#216]
    5760:	f9007062 	str	x2, [x3,#224]
    5764:	928003e2 	mov	x2, #0xffffffffffffffe0    	// #-32
    5768:	f9007462 	str	x2, [x3,#232]
    576c:	d4000001 	svc	#0x0
    5770:	d0000147 	adrp	x7, 2f000 <__FRAME_END__+0x18e30>
    5774:	f0000166 	adrp	x6, 34000 <__GI___pthread_keys+0x3d78>
    5778:	910aa0c5 	add	x5, x6, #0x2a8
    577c:	d118c084 	sub	x4, x4, #0x630
    5780:	910183b3 	add	x19, x29, #0x60
    5784:	91030068 	add	x8, x3, #0xc0
    5788:	f947e0e7 	ldr	x7, [x7,#4032]
    578c:	910163b5 	add	x21, x29, #0x58
    5790:	52800094 	mov	w20, #0x4                   	// #4
    5794:	aa1503e1 	mov	x1, x21
    5798:	d2800002 	mov	x2, #0x0                   	// #0
    579c:	52800400 	mov	w0, #0x20                  	// #32
    57a0:	f94000e7 	ldr	x7, [x7]
    57a4:	f9024c67 	str	x7, [x3,#1176]
    57a8:	f90154c5 	str	x5, [x6,#680]
    57ac:	f90004a5 	str	x5, [x5,#8]
    57b0:	f9000085 	str	x5, [x4]
    57b4:	f9000485 	str	x5, [x4,#8]
    57b8:	f94154c4 	ldr	x4, [x6,#680]
    57bc:	f9000488 	str	x8, [x4,#8]
    57c0:	f0000144 	adrp	x4, 30000 <_GLOBAL_OFFSET_TABLE_+0x88>
    57c4:	d5033bbf 	dmb	ish
    57c8:	f90154c8 	str	x8, [x6,#680]
    57cc:	394a0484 	ldrb	w4, [x4,#641]
    57d0:	a9017e7f 	stp	xzr, xzr, [x19,#16]
    57d4:	a9027e7f 	stp	xzr, xzr, [x19,#32]
    57d8:	b900e3b4 	str	w20, [x29,#224]
    57dc:	72a20014 	movk	w20, #0x1000, lsl #16
    57e0:	39104464 	strb	w4, [x3,#1041]
    57e4:	90000003 	adrp	x3, 5000 <__getpagesize@plt>
    57e8:	91145063 	add	x3, x3, #0x514
    57ec:	f9002fa3 	str	x3, [x29,#88]
    57f0:	a9007e7f 	stp	xzr, xzr, [x19]
    57f4:	a9037e7f 	stp	xzr, xzr, [x19,#48]
    57f8:	a9047e7f 	stp	xzr, xzr, [x19,#64]
    57fc:	a9057e7f 	stp	xzr, xzr, [x19,#80]
    5800:	a9067e7f 	stp	xzr, xzr, [x19,#96]
    5804:	a9077e7f 	stp	xzr, xzr, [x19,#112]
    5808:	94002eb1 	bl	112cc <__libc_sigaction>
    580c:	b900e3b4 	str	w20, [x29,#224]
    5810:	90000003 	adrp	x3, 5000 <__getpagesize@plt>
    5814:	aa1503e1 	mov	x1, x21
    5818:	9117d063 	add	x3, x3, #0x5f4
    581c:	d2800002 	mov	x2, #0x0                   	// #0
    5820:	52800420 	mov	w0, #0x21                  	// #33
    5824:	f9002fa3 	str	x3, [x29,#88]
    5828:	94002ea9 	bl	112cc <__libc_sigaction>
    582c:	f94033a3 	ldr	x3, [x29,#96]
    5830:	d2800020 	mov	x0, #0x1                   	// #1
    5834:	aa1303e1 	mov	x1, x19
    5838:	d2800002 	mov	x2, #0x0                   	// #0
    583c:	b2610464 	orr	x4, x3, #0x180000000
    5840:	d28010e8 	mov	x8, #0x87                  	// #135
    5844:	d2800103 	mov	x3, #0x8                   	// #8
    5848:	f90033a4 	str	x4, [x29,#96]
    584c:	d4000001 	svc	#0x0
    5850:	f0000173 	adrp	x19, 34000 <__GI___pthread_keys+0x3d78>
    5854:	910103a1 	add	x1, x29, #0x40
    5858:	910c8260 	add	x0, x19, #0x320
    585c:	97fffeb9 	bl	5340 <_dl_get_tls_static_info@plt>
    5860:	f94023a4 	ldr	x4, [x29,#64]
    5864:	f1003c9f 	cmp	x4, #0xf
    5868:	54000e68 	b.hi	5a34 <__pthread_initialize_minimal+0x324>
    586c:	f0000160 	adrp	x0, 34000 <__GI___pthread_keys+0x3d78>
    5870:	d2800202 	mov	x2, #0x10                  	// #16
    5874:	d28001e1 	mov	x1, #0xf                   	// #15
    5878:	f90023a2 	str	x2, [x29,#64]
    587c:	aa0203e4 	mov	x4, x2
    5880:	f9018c01 	str	x1, [x0,#792]
    5884:	f9419262 	ldr	x2, [x19,#800]
    5888:	52800060 	mov	w0, #0x3                   	// #3
    588c:	910123a1 	add	x1, x29, #0x48
    5890:	d1000443 	sub	x3, x2, #0x1
    5894:	8b040063 	add	x3, x3, x4
    5898:	9ac40863 	udiv	x3, x3, x4
    589c:	9b047c62 	mul	x2, x3, x4
    58a0:	f9019262 	str	x2, [x19,#800]
    58a4:	97fffdc3 	bl	4fb0 <__getrlimit@plt>
    58a8:	34000b60 	cbz	w0, 5a14 <__pthread_initialize_minimal+0x304>
    58ac:	d2a00403 	mov	x3, #0x200000              	// #2097152
    58b0:	d0000141 	adrp	x1, 2f000 <__FRAME_END__+0x18e30>
    58b4:	f9419262 	ldr	x2, [x19,#800]
    58b8:	f0000173 	adrp	x19, 34000 <__GI___pthread_keys+0x3d78>
    58bc:	b9003fbf 	str	wzr, [x29,#60]
    58c0:	910a2260 	add	x0, x19, #0x288
    58c4:	f947d421 	ldr	x1, [x1,#4008]
    58c8:	f9400c34 	ldr	x20, [x1,#24]
    58cc:	8b020282 	add	x2, x20, x2
    58d0:	d1000684 	sub	x4, x20, #0x1
    58d4:	91200041 	add	x1, x2, #0x800
    58d8:	cb1403e2 	neg	x2, x20
    58dc:	eb03003f 	cmp	x1, x3
    58e0:	9a832021 	csel	x1, x1, x3, cs
    58e4:	8b040021 	add	x1, x1, x4
    58e8:	8a020021 	and	x1, x1, x2
    58ec:	f90027a1 	str	x1, [x29,#72]
    58f0:	52800021 	mov	w1, #0x1                   	// #1
    58f4:	885ffc02 	ldaxr	w2, [x0]
    58f8:	6b1f005f 	cmp	w2, wzr
    58fc:	54000061 	b.ne	5908 <__pthread_initialize_minimal+0x1f8>
    5900:	88037c01 	stxr	w3, w1, [x0]
    5904:	35ffff83 	cbnz	w3, 58f4 <__pthread_initialize_minimal+0x1e4>
    5908:	54000801 	b.ne	5a08 <__pthread_initialize_minimal+0x2f8>
    590c:	f0000161 	adrp	x1, 34000 <__GI___pthread_keys+0x3d78>
    5910:	f94027a2 	ldr	x2, [x29,#72]
    5914:	910cc021 	add	x1, x1, #0x330
    5918:	910a2260 	add	x0, x19, #0x288
    591c:	f9001022 	str	x2, [x1,#32]
    5920:	52800002 	mov	w2, #0x0                   	// #0
    5924:	f9000834 	str	x20, [x1,#16]
    5928:	885f7c01 	ldxr	w1, [x0]
    592c:	8803fc02 	stlxr	w3, w2, [x0]
    5930:	35ffffc3 	cbnz	w3, 5928 <__pthread_initialize_minimal+0x218>
    5934:	7100043f 	cmp	w1, #0x1
    5938:	5400086c 	b.gt	5a44 <__pthread_initialize_minimal+0x334>
    593c:	d0000154 	adrp	x20, 2f000 <__FRAME_END__+0x18e30>
    5940:	97fffe68 	bl	52e0 <__libc_dl_error_tsd@plt>
    5944:	aa0003f3 	mov	x19, x0
    5948:	f947ee95 	ldr	x21, [x20,#4056]
    594c:	f9450ea0 	ldr	x0, [x21,#2584]
    5950:	d63f0000 	blr	x0
    5954:	f9400000 	ldr	x0, [x0]
    5958:	f9000260 	str	x0, [x19]
    595c:	d0000140 	adrp	x0, 2f000 <__FRAME_END__+0x18e30>
    5960:	b9498eb3 	ldr	w19, [x21,#2444]
    5964:	f947dc00 	ldr	x0, [x0,#4024]
    5968:	f9050ea0 	str	x0, [x21,#2584]
    596c:	90000020 	adrp	x0, 9000 <__pthread_mutex_lock_full+0x1a0>
    5970:	910f6000 	add	x0, x0, #0x3d8
    5974:	f907c6a0 	str	x0, [x21,#3976]
    5978:	b0000020 	adrp	x0, a000 <pthread_mutex_timedlock+0x3b4>
    597c:	b9098ebf 	str	wzr, [x21,#2444]
    5980:	91296000 	add	x0, x0, #0xa58
    5984:	f907caa0 	str	x0, [x21,#3984]
    5988:	340000d3 	cbz	w19, 59a0 <__pthread_initialize_minimal+0x290>
    598c:	f947ee80 	ldr	x0, [x20,#4056]
    5990:	91262000 	add	x0, x0, #0x988
    5994:	94000e91 	bl	93d8 <__pthread_mutex_lock>
    5998:	71000673 	subs	w19, w19, #0x1
    599c:	54ffff81 	b.ne	598c <__pthread_initialize_minimal+0x27c>
    59a0:	f947ee94 	ldr	x20, [x20,#4056]
    59a4:	b0000003 	adrp	x3, 6000 <do_clone.constprop.4+0x1a4>
    59a8:	91014063 	add	x3, x3, #0x50
    59ac:	f0000160 	adrp	x0, 34000 <__GI___pthread_keys+0x3d78>
    59b0:	b0000001 	adrp	x1, 6000 <do_clone.constprop.4+0x1a4>
    59b4:	d0000142 	adrp	x2, 2f000 <__FRAME_END__+0x18e30>
    59b8:	f907ce83 	str	x3, [x20,#3992]
    59bc:	b0000003 	adrp	x3, 6000 <do_clone.constprop.4+0x1a4>
    59c0:	91224063 	add	x3, x3, #0x890
    59c4:	f907f683 	str	x3, [x20,#4072]
    59c8:	b0000003 	adrp	x3, 6000 <do_clone.constprop.4+0x1a4>
    59cc:	9106e021 	add	x1, x1, #0x1b8
    59d0:	91285063 	add	x3, x3, #0xa14
    59d4:	912e2042 	add	x2, x2, #0xb88
    59d8:	910e2000 	add	x0, x0, #0x388
    59dc:	f907fa83 	str	x3, [x20,#4080]
    59e0:	97fffe08 	bl	5200 <__libc_pthread_init@plt>
    59e4:	f94013f5 	ldr	x21, [sp,#32]
    59e8:	f0000161 	adrp	x1, 34000 <__GI___pthread_keys+0x3d78>
    59ec:	a94153f3 	ldp	x19, x20, [sp,#16]
    59f0:	a8cf7bfd 	ldp	x29, x30, [sp],#240
    59f4:	f901b820 	str	x0, [x1,#880]
    59f8:	f0000160 	adrp	x0, 34000 <__GI___pthread_keys+0x3d78>
    59fc:	52800021 	mov	w1, #0x1                   	// #1
    5a00:	b9032c01 	str	w1, [x0,#812]
    5a04:	d65f03c0 	ret
    5a08:	b9003fa2 	str	w2, [x29,#60]
    5a0c:	94002757 	bl	f768 <__lll_lock_wait_private>
    5a10:	17ffffbf 	b	590c <__pthread_initialize_minimal+0x1fc>
    5a14:	f94027a3 	ldr	x3, [x29,#72]
    5a18:	b100047f 	cmn	x3, #0x1
    5a1c:	54fff480 	b.eq	58ac <__pthread_initialize_minimal+0x19c>
    5a20:	b24043e0 	mov	x0, #0x1ffff               	// #131071
    5a24:	eb00007f 	cmp	x3, x0
    5a28:	d2a00040 	mov	x0, #0x20000               	// #131072
    5a2c:	9a808063 	csel	x3, x3, x0, hi
    5a30:	17ffffa0 	b	58b0 <__pthread_initialize_minimal+0x1a0>
    5a34:	f0000161 	adrp	x1, 34000 <__GI___pthread_keys+0x3d78>
    5a38:	d1000480 	sub	x0, x4, #0x1
    5a3c:	f9018c20 	str	x0, [x1,#792]
    5a40:	17ffff91 	b	5884 <__pthread_initialize_minimal+0x174>
    5a44:	d2801021 	mov	x1, #0x81                  	// #129
    5a48:	d2800022 	mov	x2, #0x1                   	// #1
    5a4c:	d2800003 	mov	x3, #0x0                   	// #0
    5a50:	d2800c48 	mov	x8, #0x62                  	// #98
    5a54:	d4000001 	svc	#0x0
    5a58:	17ffffb9 	b	593c <__pthread_initialize_minimal+0x22c>

0000000000005a5c <__pthread_get_minstack>:
    5a5c:	d0000142 	adrp	x2, 2f000 <__FRAME_END__+0x18e30>
    5a60:	f9400803 	ldr	x3, [x0,#16]
    5a64:	f0000160 	adrp	x0, 34000 <__GI___pthread_keys+0x3d78>
    5a68:	f947d442 	ldr	x2, [x2,#4008]
    5a6c:	f9419001 	ldr	x1, [x0,#800]
    5a70:	f9400c40 	ldr	x0, [x2,#24]
    5a74:	8b010000 	add	x0, x0, x1
    5a78:	91408000 	add	x0, x0, #0x20, lsl #12
    5a7c:	8b030000 	add	x0, x0, x3
    5a80:	d65f03c0 	ret

0000000000005a84 <__GI___nptl_create_event>:
    5a84:	d65f03c0 	ret

0000000000005a88 <__GI___nptl_death_event>:
    5a88:	d65f03c0 	ret

0000000000005a8c <__nptl_main>:
    5a8c:	a9bf7bfd 	stp	x29, x30, [sp,#-16]!
    5a90:	b0000061 	adrp	x1, 12000 <__pthread_current_priority+0xa8>
    5a94:	d2800020 	mov	x0, #0x1                   	// #1
    5a98:	910003fd 	mov	x29, sp
    5a9c:	9121c021 	add	x1, x1, #0x870
    5aa0:	d28023a2 	mov	x2, #0x11d                 	// #285
    5aa4:	d2800808 	mov	x8, #0x40                  	// #64
    5aa8:	d4000001 	svc	#0x0
    5aac:	52800000 	mov	w0, #0x0                   	// #0
    5ab0:	97fffd30 	bl	4f70 <_exit@plt>

0000000000005ab4 <setxid_mark_thread.isra.0>:
    5ab4:	aa0003e4 	mov	x4, x0
    5ab8:	b9441c00 	ldr	w0, [x0,#1052]
    5abc:	d10043ff 	sub	sp, sp, #0x10
    5ac0:	3100041f 	cmn	w0, #0x1
    5ac4:	54000420 	b.eq	5b48 <setxid_mark_thread.isra.0+0x94>
    5ac8:	b9410881 	ldr	w1, [x4,#264]
    5acc:	91042082 	add	x2, x4, #0x108
    5ad0:	b9041c9f 	str	wzr, [x4,#1052]
    5ad4:	321a0023 	orr	w3, w1, #0x40
    5ad8:	2a0103e0 	mov	w0, w1
    5adc:	37200201 	tbnz	w1, #4, 5b1c <setxid_mark_thread.isra.0+0x68>
    5ae0:	b9000fe1 	str	w1, [sp,#12]
    5ae4:	885ffc41 	ldaxr	w1, [x2]
    5ae8:	6b00003f 	cmp	w1, w0
    5aec:	54000061 	b.ne	5af8 <setxid_mark_thread.isra.0+0x44>
    5af0:	88057c43 	stxr	w5, w3, [x2]
    5af4:	35ffff85 	cbnz	w5, 5ae4 <setxid_mark_thread.isra.0+0x30>
    5af8:	54000061 	b.ne	5b04 <setxid_mark_thread.isra.0+0x50>
    5afc:	910043ff 	add	sp, sp, #0x10
    5b00:	d65f03c0 	ret
    5b04:	b9000fe1 	str	w1, [sp,#12]
    5b08:	91042082 	add	x2, x4, #0x108
    5b0c:	b9410881 	ldr	w1, [x4,#264]
    5b10:	321a0023 	orr	w3, w1, #0x40
    5b14:	2a0103e0 	mov	w0, w1
    5b18:	3627fe41 	tbz	w1, #4, 5ae0 <setxid_mark_thread.isra.0+0x2c>
    5b1c:	3737ff01 	tbnz	w1, #6, 5afc <setxid_mark_thread.isra.0+0x48>
    5b20:	52800021 	mov	w1, #0x1                   	// #1
    5b24:	91107080 	add	x0, x4, #0x41c
    5b28:	b9041c81 	str	w1, [x4,#1052]
    5b2c:	d2800022 	mov	x2, #0x1                   	// #1
    5b30:	d2801021 	mov	x1, #0x81                  	// #129
    5b34:	d2800003 	mov	x3, #0x0                   	// #0
    5b38:	d2800c48 	mov	x8, #0x62                  	// #98
    5b3c:	d4000001 	svc	#0x0
    5b40:	910043ff 	add	sp, sp, #0x10
    5b44:	d65f03c0 	ret
    5b48:	b9000fe0 	str	w0, [sp,#12]
    5b4c:	91107085 	add	x5, x4, #0x41c
    5b50:	12800020 	mov	w0, #0xfffffffe            	// #-2
    5b54:	12800002 	mov	w2, #0xffffffff            	// #-1
    5b58:	885ffca1 	ldaxr	w1, [x5]
    5b5c:	6b02003f 	cmp	w1, w2
    5b60:	54000061 	b.ne	5b6c <setxid_mark_thread.isra.0+0xb8>
    5b64:	88037ca0 	stxr	w3, w0, [x5]
    5b68:	35ffff83 	cbnz	w3, 5b58 <setxid_mark_thread.isra.0+0xa4>
    5b6c:	54000161 	b.ne	5b98 <setxid_mark_thread.isra.0+0xe4>
    5b70:	aa0503e0 	mov	x0, x5
    5b74:	d2801001 	mov	x1, #0x80                  	// #128
    5b78:	92800022 	mov	x2, #0xfffffffffffffffe    	// #-2
    5b7c:	d2800003 	mov	x3, #0x0                   	// #0
    5b80:	d2800c48 	mov	x8, #0x62                  	// #98
    5b84:	d4000001 	svc	#0x0
    5b88:	b9441c80 	ldr	w0, [x4,#1052]
    5b8c:	3100081f 	cmn	w0, #0x2
    5b90:	54ffff00 	b.eq	5b70 <setxid_mark_thread.isra.0+0xbc>
    5b94:	17ffffcd 	b	5ac8 <setxid_mark_thread.isra.0+0x14>
    5b98:	b9000fe1 	str	w1, [sp,#12]
    5b9c:	17ffffcb 	b	5ac8 <setxid_mark_thread.isra.0+0x14>

0000000000005ba0 <__free_stacks>:
    5ba0:	a9bc7bfd 	stp	x29, x30, [sp,#-64]!
    5ba4:	910003fd 	mov	x29, sp
    5ba8:	a9025bf5 	stp	x21, x22, [sp,#32]
    5bac:	f0000155 	adrp	x21, 30000 <_GLOBAL_OFFSET_TABLE_+0x88>
    5bb0:	910962b5 	add	x21, x21, #0x258
    5bb4:	a90363f7 	stp	x23, x24, [sp,#48]
    5bb8:	a90153f3 	stp	x19, x20, [sp,#16]
    5bbc:	f94006a2 	ldr	x2, [x21,#8]
    5bc0:	aa0003f8 	mov	x24, x0
    5bc4:	f0000177 	adrp	x23, 34000 <__GI___pthread_keys+0x3d78>
    5bc8:	eb15005f 	cmp	x2, x21
    5bcc:	f9400453 	ldr	x19, [x2,#8]
    5bd0:	540000e1 	b.ne	5bec <__free_stacks+0x4c>
    5bd4:	14000022 	b	5c5c <__free_stacks+0xbc>
    5bd8:	eb15027f 	cmp	x19, x21
    5bdc:	f9400661 	ldr	x1, [x19,#8]
    5be0:	aa1303e2 	mov	x2, x19
    5be4:	540003c0 	b.eq	5c5c <__free_stacks+0xbc>
    5be8:	aa0103f3 	mov	x19, x1
    5bec:	d1030054 	sub	x20, x2, #0xc0
    5bf0:	b940d281 	ldr	w1, [x20,#208]
    5bf4:	6b1f003f 	cmp	w1, wzr
    5bf8:	54ffff0c 	b.gt	5bd8 <__free_stacks+0x38>
    5bfc:	f9014ae2 	str	x2, [x23,#656]
    5c00:	9118c040 	add	x0, x2, #0x630
    5c04:	910a42f6 	add	x22, x23, #0x290
    5c08:	52800001 	mov	w1, #0x0                   	// #0
    5c0c:	d5033bbf 	dmb	ish
    5c10:	f9400043 	ldr	x3, [x2]
    5c14:	f9400444 	ldr	x4, [x2,#8]
    5c18:	f9000464 	str	x4, [x3,#8]
    5c1c:	f9400442 	ldr	x2, [x2,#8]
    5c20:	f9000043 	str	x3, [x2]
    5c24:	d5033bbf 	dmb	ish
    5c28:	f94006c2 	ldr	x2, [x22,#8]
    5c2c:	f9424e83 	ldr	x3, [x20,#1176]
    5c30:	f9014aff 	str	xzr, [x23,#656]
    5c34:	cb030042 	sub	x2, x2, x3
    5c38:	f90006c2 	str	x2, [x22,#8]
    5c3c:	97fffd29 	bl	50e0 <_dl_deallocate_tls@plt>
    5c40:	f9424a80 	ldr	x0, [x20,#1168]
    5c44:	f9424e81 	ldr	x1, [x20,#1176]
    5c48:	97fffd9a 	bl	52b0 <munmap@plt>
    5c4c:	35000120 	cbnz	w0, 5c70 <__free_stacks+0xd0>
    5c50:	f94006c1 	ldr	x1, [x22,#8]
    5c54:	eb18003f 	cmp	x1, x24
    5c58:	54fffc08 	b.hi	5bd8 <__free_stacks+0x38>
    5c5c:	a94153f3 	ldp	x19, x20, [sp,#16]
    5c60:	a9425bf5 	ldp	x21, x22, [sp,#32]
    5c64:	a94363f7 	ldp	x23, x24, [sp,#48]
    5c68:	a8c47bfd 	ldp	x29, x30, [sp],#64
    5c6c:	d65f03c0 	ret
    5c70:	97fffd40 	bl	5170 <abort@plt>

0000000000005c74 <__deallocate_stack>:
    5c74:	a9bb7bfd 	stp	x29, x30, [sp,#-80]!
    5c78:	910003fd 	mov	x29, sp
    5c7c:	a90153f3 	stp	x19, x20, [sp,#16]
    5c80:	f0000173 	adrp	x19, 34000 <__GI___pthread_keys+0x3d78>
    5c84:	aa0003f4 	mov	x20, x0
    5c88:	910a4261 	add	x1, x19, #0x290
    5c8c:	b9004fbf 	str	wzr, [x29,#76]
    5c90:	91004020 	add	x0, x1, #0x10
    5c94:	52800021 	mov	w1, #0x1                   	// #1
    5c98:	a9025bf5 	stp	x21, x22, [sp,#32]
    5c9c:	a90363f7 	stp	x23, x24, [sp,#48]
    5ca0:	885ffc02 	ldaxr	w2, [x0]
    5ca4:	6b1f005f 	cmp	w2, wzr
    5ca8:	54000061 	b.ne	5cb4 <__deallocate_stack+0x40>
    5cac:	88037c01 	stxr	w3, w1, [x0]
    5cb0:	35ffff83 	cbnz	w3, 5ca0 <__deallocate_stack+0x2c>
    5cb4:	54000601 	b.ne	5d74 <__deallocate_stack+0x100>
    5cb8:	91030280 	add	x0, x20, #0xc0
    5cbc:	f9014a60 	str	x0, [x19,#656]
    5cc0:	f0000163 	adrp	x3, 34000 <__GI___pthread_keys+0x3d78>
    5cc4:	910a4262 	add	x2, x19, #0x290
    5cc8:	d5033bbf 	dmb	ish
    5ccc:	f9406281 	ldr	x1, [x20,#192]
    5cd0:	f9406684 	ldr	x4, [x20,#200]
    5cd4:	f9000424 	str	x4, [x1,#8]
    5cd8:	f9406684 	ldr	x4, [x20,#200]
    5cdc:	f9000081 	str	x1, [x4]
    5ce0:	d5033bbf 	dmb	ish
    5ce4:	39504a81 	ldrb	w1, [x20,#1042]
    5ce8:	f9014a7f 	str	xzr, [x19,#656]
    5cec:	350004a1 	cbnz	w1, 5d80 <__deallocate_stack+0x10c>
    5cf0:	f0000141 	adrp	x1, 30000 <_GLOBAL_OFFSET_TABLE_+0x88>
    5cf4:	b2400004 	orr	x4, x0, #0x1
    5cf8:	f9014864 	str	x4, [x3,#656]
    5cfc:	91096036 	add	x22, x1, #0x258
    5d00:	d2a05005 	mov	x5, #0x2800000             	// #41943040
    5d04:	d5033bbf 	dmb	ish
    5d08:	f9412c24 	ldr	x4, [x1,#600]
    5d0c:	f9006284 	str	x4, [x20,#192]
    5d10:	f9006696 	str	x22, [x20,#200]
    5d14:	f9000480 	str	x0, [x4,#8]
    5d18:	d5033bbf 	dmb	ish
    5d1c:	f9012c20 	str	x0, [x1,#600]
    5d20:	d5033bbf 	dmb	ish
    5d24:	f9400441 	ldr	x1, [x2,#8]
    5d28:	f9424e80 	ldr	x0, [x20,#1176]
    5d2c:	f901487f 	str	xzr, [x3,#656]
    5d30:	8b000020 	add	x0, x1, x0
    5d34:	f9000440 	str	x0, [x2,#8]
    5d38:	eb05001f 	cmp	x0, x5
    5d3c:	540003e8 	b.hi	5db8 <__deallocate_stack+0x144>
    5d40:	910a4260 	add	x0, x19, #0x290
    5d44:	52800002 	mov	w2, #0x0                   	// #0
    5d48:	91004000 	add	x0, x0, #0x10
    5d4c:	885f7c01 	ldxr	w1, [x0]
    5d50:	8803fc02 	stlxr	w3, w2, [x0]
    5d54:	35ffffc3 	cbnz	w3, 5d4c <__deallocate_stack+0xd8>
    5d58:	7100043f 	cmp	w1, #0x1
    5d5c:	540001ac 	b.gt	5d90 <__deallocate_stack+0x11c>
    5d60:	a94153f3 	ldp	x19, x20, [sp,#16]
    5d64:	a9425bf5 	ldp	x21, x22, [sp,#32]
    5d68:	a94363f7 	ldp	x23, x24, [sp,#48]
    5d6c:	a8c57bfd 	ldp	x29, x30, [sp],#80
    5d70:	d65f03c0 	ret
    5d74:	b9004fa2 	str	w2, [x29,#76]
    5d78:	9400267c 	bl	f768 <__lll_lock_wait_private>
    5d7c:	17ffffcf 	b	5cb8 <__deallocate_stack+0x44>
    5d80:	911bc280 	add	x0, x20, #0x6f0
    5d84:	52800001 	mov	w1, #0x0                   	// #0
    5d88:	97fffcd6 	bl	50e0 <_dl_deallocate_tls@plt>
    5d8c:	17ffffed 	b	5d40 <__deallocate_stack+0xcc>
    5d90:	d2801021 	mov	x1, #0x81                  	// #129
    5d94:	d2800022 	mov	x2, #0x1                   	// #1
    5d98:	d2800003 	mov	x3, #0x0                   	// #0
    5d9c:	d2800c48 	mov	x8, #0x62                  	// #98
    5da0:	d4000001 	svc	#0x0
    5da4:	a94153f3 	ldp	x19, x20, [sp,#16]
    5da8:	a9425bf5 	ldp	x21, x22, [sp,#32]
    5dac:	a94363f7 	ldp	x23, x24, [sp,#48]
    5db0:	a8c57bfd 	ldp	x29, x30, [sp],#80
    5db4:	d65f03c0 	ret
    5db8:	f94006c2 	ldr	x2, [x22,#8]
    5dbc:	eb16005f 	cmp	x2, x22
    5dc0:	f9400454 	ldr	x20, [x2,#8]
    5dc4:	54fffbe0 	b.eq	5d40 <__deallocate_stack+0xcc>
    5dc8:	aa0503f7 	mov	x23, x5
    5dcc:	14000006 	b	5de4 <__deallocate_stack+0x170>
    5dd0:	eb16029f 	cmp	x20, x22
    5dd4:	f9400680 	ldr	x0, [x20,#8]
    5dd8:	aa1403e2 	mov	x2, x20
    5ddc:	54fffb20 	b.eq	5d40 <__deallocate_stack+0xcc>
    5de0:	aa0003f4 	mov	x20, x0
    5de4:	d1030055 	sub	x21, x2, #0xc0
    5de8:	b940d2a0 	ldr	w0, [x21,#208]
    5dec:	6b1f001f 	cmp	w0, wzr
    5df0:	54ffff0c 	b.gt	5dd0 <__deallocate_stack+0x15c>
    5df4:	f9014a62 	str	x2, [x19,#656]
    5df8:	9118c040 	add	x0, x2, #0x630
    5dfc:	910a4278 	add	x24, x19, #0x290
    5e00:	52800001 	mov	w1, #0x0                   	// #0
    5e04:	d5033bbf 	dmb	ish
    5e08:	f9400043 	ldr	x3, [x2]
    5e0c:	f9400444 	ldr	x4, [x2,#8]
    5e10:	f9000464 	str	x4, [x3,#8]
    5e14:	f9400442 	ldr	x2, [x2,#8]
    5e18:	f9000043 	str	x3, [x2]
    5e1c:	d5033bbf 	dmb	ish
    5e20:	f9400702 	ldr	x2, [x24,#8]
    5e24:	f9424ea3 	ldr	x3, [x21,#1176]
    5e28:	f9014a7f 	str	xzr, [x19,#656]
    5e2c:	cb030042 	sub	x2, x2, x3
    5e30:	f9000702 	str	x2, [x24,#8]
    5e34:	97fffcab 	bl	50e0 <_dl_deallocate_tls@plt>
    5e38:	f9424aa0 	ldr	x0, [x21,#1168]
    5e3c:	f9424ea1 	ldr	x1, [x21,#1176]
    5e40:	97fffd1c 	bl	52b0 <munmap@plt>
    5e44:	350000a0 	cbnz	w0, 5e58 <__deallocate_stack+0x1e4>
    5e48:	f9400700 	ldr	x0, [x24,#8]
    5e4c:	eb17001f 	cmp	x0, x23
    5e50:	54fffc08 	b.hi	5dd0 <__deallocate_stack+0x15c>
    5e54:	17ffffbb 	b	5d40 <__deallocate_stack+0xcc>
    5e58:	97fffcc6 	bl	5170 <abort@plt>

0000000000005e5c <do_clone.constprop.4>:
    5e5c:	a9bb7bfd 	stp	x29, x30, [sp,#-80]!
    5e60:	911bc005 	add	x5, x0, #0x6f0
    5e64:	910003fd 	mov	x29, sp
    5e68:	a90153f3 	stp	x19, x20, [sp,#16]
    5e6c:	f90013f6 	str	x22, [sp,#32]
    5e70:	f0000154 	adrp	x20, 30000 <_GLOBAL_OFFSET_TABLE_+0x88>
    5e74:	aa0003f3 	mov	x19, x0
    5e78:	aa0103f6 	mov	x22, x1
    5e7c:	91094280 	add	x0, x20, #0x250
    5e80:	aa0203e1 	mov	x1, x2
    5e84:	35000303 	cbnz	w3, 5ee4 <do_clone.constprop.4+0x88>
    5e88:	885ffc02 	ldaxr	w2, [x0]
    5e8c:	11000442 	add	w2, w2, #0x1
    5e90:	88037c02 	stxr	w3, w2, [x0]
    5e94:	35ffffa3 	cbnz	w3, 5e88 <do_clone.constprop.4+0x2c>
    5e98:	91034264 	add	x4, x19, #0xd0
    5e9c:	5281e002 	mov	w2, #0xf00                 	// #3840
    5ea0:	b0000000 	adrp	x0, 6000 <do_clone.constprop.4+0x1a4>
    5ea4:	72a007a2 	movk	w2, #0x3d, lsl #16
    5ea8:	913a3000 	add	x0, x0, #0xe8c
    5eac:	aa1303e3 	mov	x3, x19
    5eb0:	aa0403e6 	mov	x6, x4
    5eb4:	97fffd13 	bl	5300 <__clone@plt>
    5eb8:	3100041f 	cmn	w0, #0x1
    5ebc:	540008c0 	b.eq	5fd4 <do_clone.constprop.4+0x178>
    5ec0:	d53bd041 	mrs	x1, tpidr_el0
    5ec4:	52800022 	mov	w2, #0x1                   	// #1
    5ec8:	d11bc021 	sub	x1, x1, #0x6f0
    5ecc:	52800000 	mov	w0, #0x0                   	// #0
    5ed0:	b9000022 	str	w2, [x1]
    5ed4:	a94153f3 	ldp	x19, x20, [sp,#16]
    5ed8:	f94013f6 	ldr	x22, [sp,#32]
    5edc:	a8c57bfd 	ldp	x29, x30, [sp],#80
    5ee0:	d65f03c0 	ret
    5ee4:	b9004fbf 	str	wzr, [x29,#76]
    5ee8:	91106260 	add	x0, x19, #0x418
    5eec:	52800023 	mov	w3, #0x1                   	// #1
    5ef0:	885ffc02 	ldaxr	w2, [x0]
    5ef4:	6b1f005f 	cmp	w2, wzr
    5ef8:	54000061 	b.ne	5f04 <do_clone.constprop.4+0xa8>
    5efc:	88047c03 	stxr	w4, w3, [x0]
    5f00:	35ffff84 	cbnz	w4, 5ef0 <do_clone.constprop.4+0x94>
    5f04:	540005a1 	b.ne	5fb8 <do_clone.constprop.4+0x15c>
    5f08:	f0000154 	adrp	x20, 30000 <_GLOBAL_OFFSET_TABLE_+0x88>
    5f0c:	91094280 	add	x0, x20, #0x250
    5f10:	885ffc02 	ldaxr	w2, [x0]
    5f14:	11000442 	add	w2, w2, #0x1
    5f18:	88037c02 	stxr	w3, w2, [x0]
    5f1c:	35ffffa3 	cbnz	w3, 5f10 <do_clone.constprop.4+0xb4>
    5f20:	91034264 	add	x4, x19, #0xd0
    5f24:	5281e002 	mov	w2, #0xf00                 	// #3840
    5f28:	b0000000 	adrp	x0, 6000 <do_clone.constprop.4+0x1a4>
    5f2c:	72a007a2 	movk	w2, #0x3d, lsl #16
    5f30:	913a3000 	add	x0, x0, #0xe8c
    5f34:	aa1303e3 	mov	x3, x19
    5f38:	aa0403e6 	mov	x6, x4
    5f3c:	97fffcf1 	bl	5300 <__clone@plt>
    5f40:	3100041f 	cmn	w0, #0x1
    5f44:	54000480 	b.eq	5fd4 <do_clone.constprop.4+0x178>
    5f48:	f94016c2 	ldr	x2, [x22,#40]
    5f4c:	b40000e2 	cbz	x2, 5f68 <do_clone.constprop.4+0x10c>
    5f50:	b980d260 	ldrsw	x0, [x19,#208]
    5f54:	d2800f48 	mov	x8, #0x7a                  	// #122
    5f58:	f9401ac1 	ldr	x1, [x22,#48]
    5f5c:	d4000001 	svc	#0x0
    5f60:	3140041f 	cmn	w0, #0x1, lsl #12
    5f64:	54000148 	b.hi	5f8c <do_clone.constprop.4+0x130>
    5f68:	b9400ac0 	ldr	w0, [x22,#8]
    5f6c:	360ffaa0 	tbz	w0, #1, 5ec0 <do_clone.constprop.4+0x64>
    5f70:	b980d260 	ldrsw	x0, [x19,#208]
    5f74:	9110c262 	add	x2, x19, #0x430
    5f78:	b9843661 	ldrsw	x1, [x19,#1076]
    5f7c:	d2800ee8 	mov	x8, #0x77                  	// #119
    5f80:	d4000001 	svc	#0x0
    5f84:	3140041f 	cmn	w0, #0x1, lsl #12
    5f88:	54fff9c9 	b.ls	5ec0 <do_clone.constprop.4+0x64>
    5f8c:	2a0003e3 	mov	w3, w0
    5f90:	d53bd040 	mrs	x0, tpidr_el0
    5f94:	d11bc000 	sub	x0, x0, #0x6f0
    5f98:	b980d261 	ldrsw	x1, [x19,#208]
    5f9c:	d2800402 	mov	x2, #0x20                  	// #32
    5fa0:	d2801068 	mov	x8, #0x83                  	// #131
    5fa4:	b980d400 	ldrsw	x0, [x0,#212]
    5fa8:	d4000001 	svc	#0x0
    5fac:	3140047f 	cmn	w3, #0x1, lsl #12
    5fb0:	5a8397e0 	csneg	w0, wzr, w3, ls
    5fb4:	17ffffc8 	b	5ed4 <do_clone.constprop.4+0x78>
    5fb8:	f9001ba1 	str	x1, [x29,#48]
    5fbc:	f9001fa5 	str	x5, [x29,#56]
    5fc0:	b9004fa2 	str	w2, [x29,#76]
    5fc4:	940025e9 	bl	f768 <__lll_lock_wait_private>
    5fc8:	f9401fa5 	ldr	x5, [x29,#56]
    5fcc:	f9401ba1 	ldr	x1, [x29,#48]
    5fd0:	17ffffce 	b	5f08 <do_clone.constprop.4+0xac>
    5fd4:	91094294 	add	x20, x20, #0x250
    5fd8:	885ffe80 	ldaxr	w0, [x20]
    5fdc:	51000400 	sub	w0, w0, #0x1
    5fe0:	88017e80 	stxr	w1, w0, [x20]
    5fe4:	35ffffa1 	cbnz	w1, 5fd8 <do_clone.constprop.4+0x17c>
    5fe8:	91107260 	add	x0, x19, #0x41c
    5fec:	52800002 	mov	w2, #0x0                   	// #0
    5ff0:	885ffc01 	ldaxr	w1, [x0]
    5ff4:	88037c02 	stxr	w3, w2, [x0]
    5ff8:	35ffffc3 	cbnz	w3, 5ff0 <do_clone.constprop.4+0x194>
    5ffc:	3100083f 	cmn	w1, #0x2
    6000:	540001c0 	b.eq	6038 <do_clone.constprop.4+0x1dc>
    6004:	aa1303e0 	mov	x0, x19
    6008:	97ffff1b 	bl	5c74 <__deallocate_stack>
    600c:	f94013f6 	ldr	x22, [sp,#32]
    6010:	b0000141 	adrp	x1, 2f000 <__FRAME_END__+0x18e30>
    6014:	f947c421 	ldr	x1, [x1,#3976]
    6018:	d53bd040 	mrs	x0, tpidr_el0
    601c:	a94153f3 	ldp	x19, x20, [sp,#16]
    6020:	a8c57bfd 	ldp	x29, x30, [sp],#80
    6024:	b8616800 	ldr	w0, [x0,x1]
    6028:	52800161 	mov	w1, #0xb                   	// #11
    602c:	7100301f 	cmp	w0, #0xc
    6030:	1a811000 	csel	w0, w0, w1, ne
    6034:	d65f03c0 	ret
    6038:	d2801021 	mov	x1, #0x81                  	// #129
    603c:	d2800022 	mov	x2, #0x1                   	// #1
    6040:	d2800003 	mov	x3, #0x0                   	// #0
    6044:	d2800c48 	mov	x8, #0x62                  	// #98
    6048:	d4000001 	svc	#0x0
    604c:	17ffffee 	b	6004 <do_clone.constprop.4+0x1a8>

0000000000006050 <__make_stacks_executable>:
    6050:	a9bb7bfd 	stp	x29, x30, [sp,#-80]!
    6054:	910003fd 	mov	x29, sp
    6058:	a9025bf5 	stp	x21, x22, [sp,#32]
    605c:	a90153f3 	stp	x19, x20, [sp,#16]
    6060:	a90363f7 	stp	x23, x24, [sp,#48]
    6064:	97fffc5f 	bl	51e0 <_dl_make_stack_executable@plt>
    6068:	2a0003f6 	mov	w22, w0
    606c:	340000e0 	cbz	w0, 6088 <__make_stacks_executable+0x38>
    6070:	2a1603e0 	mov	w0, w22
    6074:	a94153f3 	ldp	x19, x20, [sp,#16]
    6078:	a9425bf5 	ldp	x21, x22, [sp,#32]
    607c:	a94363f7 	ldp	x23, x24, [sp,#48]
    6080:	a8c57bfd 	ldp	x29, x30, [sp],#80
    6084:	d65f03c0 	ret
    6088:	d0000177 	adrp	x23, 34000 <__GI___pthread_keys+0x3d78>
    608c:	b9004fa0 	str	w0, [x29,#76]
    6090:	910a42e0 	add	x0, x23, #0x290
    6094:	52800021 	mov	w1, #0x1                   	// #1
    6098:	91004000 	add	x0, x0, #0x10
    609c:	885ffc02 	ldaxr	w2, [x0]
    60a0:	6b1f005f 	cmp	w2, wzr
    60a4:	54000061 	b.ne	60b0 <__make_stacks_executable+0x60>
    60a8:	88037c01 	stxr	w3, w1, [x0]
    60ac:	35ffff83 	cbnz	w3, 609c <__make_stacks_executable+0x4c>
    60b0:	540004e1 	b.ne	614c <__make_stacks_executable+0xfc>
    60b4:	d0000158 	adrp	x24, 30000 <_GLOBAL_OFFSET_TABLE_+0x88>
    60b8:	91096314 	add	x20, x24, #0x258
    60bc:	f8410e93 	ldr	x19, [x20,#16]!
    60c0:	eb14027f 	cmp	x19, x20
    60c4:	540004a0 	b.eq	6158 <__make_stacks_executable+0x108>
    60c8:	b0000155 	adrp	x21, 2f000 <__FRAME_END__+0x18e30>
    60cc:	f947c6b5 	ldr	x21, [x21,#3976]
    60d0:	d53bd040 	mrs	x0, tpidr_el0
    60d4:	8b150015 	add	x21, x0, x21
    60d8:	14000004 	b	60e8 <__make_stacks_executable+0x98>
    60dc:	f9400273 	ldr	x19, [x19]
    60e0:	eb14027f 	cmp	x19, x20
    60e4:	540003a0 	b.eq	6158 <__make_stacks_executable+0x108>
    60e8:	f941f261 	ldr	x1, [x19,#992]
    60ec:	528000e2 	mov	w2, #0x7                   	// #7
    60f0:	f941ea60 	ldr	x0, [x19,#976]
    60f4:	f941ee63 	ldr	x3, [x19,#984]
    60f8:	8b010000 	add	x0, x0, x1
    60fc:	cb010061 	sub	x1, x3, x1
    6100:	97fffcac 	bl	53b0 <mprotect@plt>
    6104:	34fffec0 	cbz	w0, 60dc <__make_stacks_executable+0x8c>
    6108:	b94002a1 	ldr	w1, [x21]
    610c:	34fffe81 	cbz	w1, 60dc <__make_stacks_executable+0x8c>
    6110:	2a0103f6 	mov	w22, w1
    6114:	910a42e0 	add	x0, x23, #0x290
    6118:	52800002 	mov	w2, #0x0                   	// #0
    611c:	91004000 	add	x0, x0, #0x10
    6120:	885f7c01 	ldxr	w1, [x0]
    6124:	8803fc02 	stlxr	w3, w2, [x0]
    6128:	35ffffc3 	cbnz	w3, 6120 <__make_stacks_executable+0xd0>
    612c:	7100043f 	cmp	w1, #0x1
    6130:	54fffa0d 	b.le	6070 <__make_stacks_executable+0x20>
    6134:	d2801021 	mov	x1, #0x81                  	// #129
    6138:	d2800022 	mov	x2, #0x1                   	// #1
    613c:	d2800003 	mov	x3, #0x0                   	// #0
    6140:	d2800c48 	mov	x8, #0x62                  	// #98
    6144:	d4000001 	svc	#0x0
    6148:	17ffffca 	b	6070 <__make_stacks_executable+0x20>
    614c:	b9004fa2 	str	w2, [x29,#76]
    6150:	94002586 	bl	f768 <__lll_lock_wait_private>
    6154:	17ffffd8 	b	60b4 <__make_stacks_executable+0x64>
    6158:	f9412f13 	ldr	x19, [x24,#600]
    615c:	91096314 	add	x20, x24, #0x258
    6160:	eb14027f 	cmp	x19, x20
    6164:	54fffd80 	b.eq	6114 <__make_stacks_executable+0xc4>
    6168:	b0000155 	adrp	x21, 2f000 <__FRAME_END__+0x18e30>
    616c:	f947c6b5 	ldr	x21, [x21,#3976]
    6170:	d53bd040 	mrs	x0, tpidr_el0
    6174:	8b150015 	add	x21, x0, x21
    6178:	14000004 	b	6188 <__make_stacks_executable+0x138>
    617c:	f9400273 	ldr	x19, [x19]
    6180:	eb14027f 	cmp	x19, x20
    6184:	54fffc80 	b.eq	6114 <__make_stacks_executable+0xc4>
    6188:	f941f261 	ldr	x1, [x19,#992]
    618c:	528000e2 	mov	w2, #0x7                   	// #7
    6190:	f941ea60 	ldr	x0, [x19,#976]
    6194:	f941ee63 	ldr	x3, [x19,#984]
    6198:	8b010000 	add	x0, x0, x1
    619c:	cb010061 	sub	x1, x3, x1
    61a0:	97fffc84 	bl	53b0 <mprotect@plt>
    61a4:	34fffec0 	cbz	w0, 617c <__make_stacks_executable+0x12c>
    61a8:	b94002a0 	ldr	w0, [x21]
    61ac:	34fffe80 	cbz	w0, 617c <__make_stacks_executable+0x12c>
    61b0:	2a0003f6 	mov	w22, w0
    61b4:	17ffffd8 	b	6114 <__make_stacks_executable+0xc4>

00000000000061b8 <__reclaim_stacks>:
    61b8:	a9b97bfd 	stp	x29, x30, [sp,#-112]!
    61bc:	d53bd040 	mrs	x0, tpidr_el0
    61c0:	910003fd 	mov	x29, sp
    61c4:	a9046bf9 	stp	x25, x26, [sp,#64]
    61c8:	d0000179 	adrp	x25, 34000 <__GI___pthread_keys+0x3d78>
    61cc:	a90363f7 	stp	x23, x24, [sp,#48]
    61d0:	fd0033e8 	str	d8, [sp,#96]
    61d4:	d11bc018 	sub	x24, x0, #0x6f0
    61d8:	9e670008 	fmov	d8, x0
    61dc:	f9414b20 	ldr	x0, [x25,#656]
    61e0:	a90153f3 	stp	x19, x20, [sp,#16]
    61e4:	a9025bf5 	stp	x21, x22, [sp,#32]
    61e8:	a90573fb 	stp	x27, x28, [sp,#80]
    61ec:	b5000e20 	cbnz	x0, 63b0 <__reclaim_stacks+0x1f8>
    61f0:	d000015a 	adrp	x26, 30000 <_GLOBAL_OFFSET_TABLE_+0x88>
    61f4:	91096340 	add	x0, x26, #0x258
    61f8:	f9400817 	ldr	x23, [x0,#16]
    61fc:	91096340 	add	x0, x26, #0x258
    6200:	9100401c 	add	x28, x0, #0x10
    6204:	eb1c02ff 	cmp	x23, x28
    6208:	54001120 	b.eq	642c <__reclaim_stacks+0x274>
    620c:	52800036 	mov	w22, #0x1                   	// #1
    6210:	aa0003fb 	mov	x27, x0
    6214:	14000004 	b	6224 <__reclaim_stacks+0x6c>
    6218:	f94002f7 	ldr	x23, [x23]
    621c:	eb1c02ff 	cmp	x23, x28
    6220:	54000440 	b.eq	62a8 <__reclaim_stacks+0xf0>
    6224:	d10302f4 	sub	x20, x23, #0xc0
    6228:	eb14031f 	cmp	x24, x20
    622c:	54ffff60 	b.eq	6218 <__reclaim_stacks+0x60>
    6230:	910a4321 	add	x1, x25, #0x290
    6234:	f9424e80 	ldr	x0, [x20,#1176]
    6238:	b940d703 	ldr	w3, [x24,#212]
    623c:	39504282 	ldrb	w2, [x20,#1040]
    6240:	f9400424 	ldr	x4, [x1,#8]
    6244:	b900d29f 	str	wzr, [x20,#208]
    6248:	8b000080 	add	x0, x4, x0
    624c:	b900d683 	str	w3, [x20,#212]
    6250:	f9000420 	str	x0, [x1,#8]
    6254:	34fffe22 	cbz	w2, 6218 <__reclaim_stacks+0x60>
    6258:	910142e0 	add	x0, x23, #0x50
    625c:	52800001 	mov	w1, #0x0                   	// #0
    6260:	d2804002 	mov	x2, #0x200                 	// #512
    6264:	910962f3 	add	x19, x23, #0x258
    6268:	910d42f5 	add	x21, x23, #0x350
    626c:	97fffb89 	bl	5090 <memset@plt>
    6270:	3910429f 	strb	wzr, [x20,#1040]
    6274:	f9400263 	ldr	x3, [x19]
    6278:	52800001 	mov	w1, #0x0                   	// #0
    627c:	d2804002 	mov	x2, #0x200                 	// #512
    6280:	91002273 	add	x19, x19, #0x8
    6284:	aa0303e0 	mov	x0, x3
    6288:	b4000063 	cbz	x3, 6294 <__reclaim_stacks+0xdc>
    628c:	97fffb81 	bl	5090 <memset@plt>
    6290:	39104296 	strb	w22, [x20,#1040]
    6294:	eb15027f 	cmp	x19, x21
    6298:	54fffee1 	b.ne	6274 <__reclaim_stacks+0xbc>
    629c:	f94002f7 	ldr	x23, [x23]
    62a0:	eb1c02ff 	cmp	x23, x28
    62a4:	54fffc01 	b.ne	6224 <__reclaim_stacks+0x6c>
    62a8:	f9400363 	ldr	x3, [x27]
    62ac:	f9400b77 	ldr	x23, [x27,#16]
    62b0:	eb1b007f 	cmp	x3, x27
    62b4:	54000100 	b.eq	62d4 <__reclaim_stacks+0x11c>
    62b8:	aa0303e0 	mov	x0, x3
    62bc:	91096342 	add	x2, x26, #0x258
    62c0:	b940d701 	ldr	w1, [x24,#212]
    62c4:	b9001401 	str	w1, [x0,#20]
    62c8:	f9400000 	ldr	x0, [x0]
    62cc:	eb02001f 	cmp	x0, x2
    62d0:	54ffff81 	b.ne	62c0 <__reclaim_stacks+0x108>
    62d4:	91096340 	add	x0, x26, #0x258
    62d8:	91004001 	add	x1, x0, #0x10
    62dc:	eb0102ff 	cmp	x23, x1
    62e0:	54000100 	b.eq	6300 <__reclaim_stacks+0x148>
    62e4:	f90006e0 	str	x0, [x23,#8]
    62e8:	f9400c01 	ldr	x1, [x0,#24]
    62ec:	f9000023 	str	x3, [x1]
    62f0:	f9412f42 	ldr	x2, [x26,#600]
    62f4:	f9400800 	ldr	x0, [x0,#16]
    62f8:	f9012f40 	str	x0, [x26,#600]
    62fc:	f9000441 	str	x1, [x2,#8]
    6300:	9e660100 	fmov	x0, d8
    6304:	91030302 	add	x2, x24, #0xc0
    6308:	f9014b22 	str	x2, [x25,#656]
    630c:	910a4323 	add	x3, x25, #0x290
    6310:	9109635a 	add	x26, x26, #0x258
    6314:	91006061 	add	x1, x3, #0x18
    6318:	d5033bbf 	dmb	ish
    631c:	d118c01b 	sub	x27, x0, #0x630
    6320:	91004340 	add	x0, x26, #0x10
    6324:	f9400364 	ldr	x4, [x27]
    6328:	f9400765 	ldr	x5, [x27,#8]
    632c:	f9000485 	str	x5, [x4,#8]
    6330:	f9400765 	ldr	x5, [x27,#8]
    6334:	f90000a4 	str	x4, [x5]
    6338:	d5033bbf 	dmb	ish
    633c:	39504b04 	ldrb	w4, [x24,#1042]
    6340:	f9014b3f 	str	xzr, [x25,#656]
    6344:	f9000f40 	str	x0, [x26,#24]
    6348:	f9000b40 	str	x0, [x26,#16]
    634c:	f9000421 	str	x1, [x1,#8]
    6350:	f9000c61 	str	x1, [x3,#24]
    6354:	350005e4 	cbnz	w4, 6410 <__reclaim_stacks+0x258>
    6358:	f9000360 	str	x0, [x27]
    635c:	f9000760 	str	x0, [x27,#8]
    6360:	f9400b40 	ldr	x0, [x26,#16]
    6364:	f9000402 	str	x2, [x0,#8]
    6368:	d5033bbf 	dmb	ish
    636c:	f9000b42 	str	x2, [x26,#16]
    6370:	910a4320 	add	x0, x25, #0x290
    6374:	d0000141 	adrp	x1, 30000 <_GLOBAL_OFFSET_TABLE_+0x88>
    6378:	f9014b3f 	str	xzr, [x25,#656]
    637c:	52800022 	mov	w2, #0x1                   	// #1
    6380:	a94153f3 	ldp	x19, x20, [sp,#16]
    6384:	b900101f 	str	wzr, [x0,#16]
    6388:	d0000160 	adrp	x0, 34000 <__GI___pthread_keys+0x3d78>
    638c:	a9425bf5 	ldp	x21, x22, [sp,#32]
    6390:	a94363f7 	ldp	x23, x24, [sp,#48]
    6394:	a9446bf9 	ldp	x25, x26, [sp,#64]
    6398:	a94573fb 	ldp	x27, x28, [sp,#80]
    639c:	fd4033e8 	ldr	d8, [sp,#96]
    63a0:	b9025022 	str	w2, [x1,#592]
    63a4:	b902881f 	str	wzr, [x0,#648]
    63a8:	a8c77bfd 	ldp	x29, x30, [sp],#112
    63ac:	d65f03c0 	ret
    63b0:	927ff801 	and	x1, x0, #0xfffffffffffffffe
    63b4:	360001c0 	tbz	w0, #0, 63ec <__reclaim_stacks+0x234>
    63b8:	d000015a 	adrp	x26, 30000 <_GLOBAL_OFFSET_TABLE_+0x88>
    63bc:	91096342 	add	x2, x26, #0x258
    63c0:	aa0203e0 	mov	x0, x2
    63c4:	f8410c17 	ldr	x23, [x0,#16]!
    63c8:	f94006e3 	ldr	x3, [x23,#8]
    63cc:	eb00007f 	cmp	x3, x0
    63d0:	54000360 	b.eq	643c <__reclaim_stacks+0x284>
    63d4:	f9000037 	str	x23, [x1]
    63d8:	91096342 	add	x2, x26, #0x258
    63dc:	f9000420 	str	x0, [x1,#8]
    63e0:	f9000001 	str	x1, [x0]
    63e4:	f9400857 	ldr	x23, [x2,#16]
    63e8:	17ffff85 	b	61fc <__reclaim_stacks+0x44>
    63ec:	f9400020 	ldr	x0, [x1]
    63f0:	d000015a 	adrp	x26, 30000 <_GLOBAL_OFFSET_TABLE_+0x88>
    63f4:	f9400423 	ldr	x3, [x1,#8]
    63f8:	91096342 	add	x2, x26, #0x258
    63fc:	f9000403 	str	x3, [x0,#8]
    6400:	f9400421 	ldr	x1, [x1,#8]
    6404:	f9000020 	str	x0, [x1]
    6408:	f9400857 	ldr	x23, [x2,#16]
    640c:	17ffff7c 	b	61fc <__reclaim_stacks+0x44>
    6410:	f9000361 	str	x1, [x27]
    6414:	f9000761 	str	x1, [x27,#8]
    6418:	f9400c60 	ldr	x0, [x3,#24]
    641c:	f9000402 	str	x2, [x0,#8]
    6420:	d5033bbf 	dmb	ish
    6424:	f9000c62 	str	x2, [x3,#24]
    6428:	17ffffd2 	b	6370 <__reclaim_stacks+0x1b8>
    642c:	f9412f43 	ldr	x3, [x26,#600]
    6430:	eb00007f 	cmp	x3, x0
    6434:	54fff421 	b.ne	62b8 <__reclaim_stacks+0x100>
    6438:	17ffffb2 	b	6300 <__reclaim_stacks+0x148>
    643c:	f9412f40 	ldr	x0, [x26,#600]
    6440:	f9400403 	ldr	x3, [x0,#8]
    6444:	eb02007f 	cmp	x3, x2
    6448:	54ffeda0 	b.eq	61fc <__reclaim_stacks+0x44>
    644c:	aa0003f7 	mov	x23, x0
    6450:	aa0203e0 	mov	x0, x2
    6454:	17ffffe0 	b	63d4 <__reclaim_stacks+0x21c>

0000000000006458 <__nptl_setxid_error>:
    6458:	a9be7bfd 	stp	x29, x30, [sp,#-32]!
    645c:	910003fd 	mov	x29, sp
    6460:	b9402402 	ldr	w2, [x0,#36]
    6464:	6b01005f 	cmp	w2, w1
    6468:	54000180 	b.eq	6498 <__nptl_setxid_error+0x40>
    646c:	3100045f 	cmn	w2, #0x1
    6470:	540001c1 	b.ne	64a8 <__nptl_setxid_error+0x50>
    6474:	b9001fa2 	str	w2, [x29,#28]
    6478:	91009002 	add	x2, x0, #0x24
    647c:	b9401fa3 	ldr	w3, [x29,#28]
    6480:	885ffc44 	ldaxr	w4, [x2]
    6484:	6b03009f 	cmp	w4, w3
    6488:	54000061 	b.ne	6494 <__nptl_setxid_error+0x3c>
    648c:	88057c41 	stxr	w5, w1, [x2]
    6490:	35ffff85 	cbnz	w5, 6480 <__nptl_setxid_error+0x28>
    6494:	54000061 	b.ne	64a0 <__nptl_setxid_error+0x48>
    6498:	a8c27bfd 	ldp	x29, x30, [sp],#32
    649c:	d65f03c0 	ret
    64a0:	b9001fa4 	str	w4, [x29,#28]
    64a4:	17ffffef 	b	6460 <__nptl_setxid_error+0x8>
    64a8:	97fffb32 	bl	5170 <abort@plt>

00000000000064ac <__nptl_setxid>:
    64ac:	a9ba7bfd 	stp	x29, x30, [sp,#-96]!
    64b0:	910003fd 	mov	x29, sp
    64b4:	a9025bf5 	stp	x21, x22, [sp,#32]
    64b8:	d0000175 	adrp	x21, 34000 <__GI___pthread_keys+0x3d78>
    64bc:	f90023f9 	str	x25, [sp,#64]
    64c0:	910a42a1 	add	x1, x21, #0x290
    64c4:	b9005fbf 	str	wzr, [x29,#92]
    64c8:	a90153f3 	stp	x19, x20, [sp,#16]
    64cc:	a90363f7 	stp	x23, x24, [sp,#48]
    64d0:	aa0003f4 	mov	x20, x0
    64d4:	91004020 	add	x0, x1, #0x10
    64d8:	52800021 	mov	w1, #0x1                   	// #1
    64dc:	885ffc02 	ldaxr	w2, [x0]
    64e0:	6b1f005f 	cmp	w2, wzr
    64e4:	54000061 	b.ne	64f0 <__nptl_setxid+0x44>
    64e8:	88037c01 	stxr	w3, w1, [x0]
    64ec:	35ffff83 	cbnz	w3, 64dc <__nptl_setxid+0x30>
    64f0:	54000060 	b.eq	64fc <__nptl_setxid+0x50>
    64f4:	b9005fa2 	str	w2, [x29,#92]
    64f8:	9400249c 	bl	f768 <__lll_lock_wait_private>
    64fc:	d0000157 	adrp	x23, 30000 <_GLOBAL_OFFSET_TABLE_+0x88>
    6500:	12800000 	mov	w0, #0xffffffff            	// #-1
    6504:	910962f9 	add	x25, x23, #0x258
    6508:	b900229f 	str	wzr, [x20,#32]
    650c:	b9002680 	str	w0, [x20,#36]
    6510:	d0000160 	adrp	x0, 34000 <__GI___pthread_keys+0x3d78>
    6514:	d53bd056 	mrs	x22, tpidr_el0
    6518:	f8410f38 	ldr	x24, [x25,#16]!
    651c:	d11bc2d3 	sub	x19, x22, #0x6f0
    6520:	f9018814 	str	x20, [x0,#784]
    6524:	eb19031f 	cmp	x24, x25
    6528:	54000100 	b.eq	6548 <__nptl_setxid+0x9c>
    652c:	d1030300 	sub	x0, x24, #0xc0
    6530:	eb13001f 	cmp	x0, x19
    6534:	54000040 	b.eq	653c <__nptl_setxid+0x90>
    6538:	97fffd5f 	bl	5ab4 <setxid_mark_thread.isra.0>
    653c:	f9400318 	ldr	x24, [x24]
    6540:	eb19031f 	cmp	x24, x25
    6544:	54ffff41 	b.ne	652c <__nptl_setxid+0x80>
    6548:	910a42a0 	add	x0, x21, #0x290
    654c:	91006019 	add	x25, x0, #0x18
    6550:	f9400c18 	ldr	x24, [x0,#24]
    6554:	eb19031f 	cmp	x24, x25
    6558:	54000100 	b.eq	6578 <__nptl_setxid+0xcc>
    655c:	d1030300 	sub	x0, x24, #0xc0
    6560:	eb13001f 	cmp	x0, x19
    6564:	54000040 	b.eq	656c <__nptl_setxid+0xc0>
    6568:	97fffd53 	bl	5ab4 <setxid_mark_thread.isra.0>
    656c:	f9400318 	ldr	x24, [x24]
    6570:	eb19031f 	cmp	x24, x25
    6574:	54ffff41 	b.ne	655c <__nptl_setxid+0xb0>
    6578:	910962e9 	add	x9, x23, #0x258
    657c:	910a42a6 	add	x6, x21, #0x290
    6580:	91004127 	add	x7, x9, #0x10
    6584:	910060c6 	add	x6, x6, #0x18
    6588:	f9400923 	ldr	x3, [x9,#16]
    658c:	52800004 	mov	w4, #0x0                   	// #0
    6590:	eb07007f 	cmp	x3, x7
    6594:	54000240 	b.eq	65dc <__nptl_setxid+0x130>
    6598:	d1030061 	sub	x1, x3, #0xc0
    659c:	eb01027f 	cmp	x19, x1
    65a0:	54000180 	b.eq	65d0 <__nptl_setxid+0x124>
    65a4:	b9410820 	ldr	w0, [x1,#264]
    65a8:	36300100 	tbz	w0, #6, 65c8 <__nptl_setxid+0x11c>
    65ac:	b980d660 	ldrsw	x0, [x19,#212]
    65b0:	d2800422 	mov	x2, #0x21                  	// #33
    65b4:	b980d021 	ldrsw	x1, [x1,#208]
    65b8:	d2801068 	mov	x8, #0x83                  	// #131
    65bc:	d4000001 	svc	#0x0
    65c0:	3140041f 	cmn	w0, #0x1, lsl #12
    65c4:	540010e9 	b.ls	67e0 <__nptl_setxid+0x334>
    65c8:	52800000 	mov	w0, #0x0                   	// #0
    65cc:	0b000084 	add	w4, w4, w0
    65d0:	f9400063 	ldr	x3, [x3]
    65d4:	eb07007f 	cmp	x3, x7
    65d8:	54fffe01 	b.ne	6598 <__nptl_setxid+0xec>
    65dc:	f94000c3 	ldr	x3, [x6]
    65e0:	eb06007f 	cmp	x3, x6
    65e4:	54000240 	b.eq	662c <__nptl_setxid+0x180>
    65e8:	d1030061 	sub	x1, x3, #0xc0
    65ec:	eb01027f 	cmp	x19, x1
    65f0:	54000180 	b.eq	6620 <__nptl_setxid+0x174>
    65f4:	b9410820 	ldr	w0, [x1,#264]
    65f8:	36300100 	tbz	w0, #6, 6618 <__nptl_setxid+0x16c>
    65fc:	b980d660 	ldrsw	x0, [x19,#212]
    6600:	d2800422 	mov	x2, #0x21                  	// #33
    6604:	b980d021 	ldrsw	x1, [x1,#208]
    6608:	d2801068 	mov	x8, #0x83                  	// #131
    660c:	d4000001 	svc	#0x0
    6610:	3140041f 	cmn	w0, #0x1, lsl #12
    6614:	54000f89 	b.ls	6804 <__nptl_setxid+0x358>
    6618:	52800000 	mov	w0, #0x0                   	// #0
    661c:	0b000084 	add	w4, w4, w0
    6620:	f9400063 	ldr	x3, [x3]
    6624:	eb06007f 	cmp	x3, x6
    6628:	54fffe01 	b.ne	65e8 <__nptl_setxid+0x13c>
    662c:	aa1403e5 	mov	x5, x20
    6630:	b8420ca2 	ldr	w2, [x5,#32]!
    6634:	34000122 	cbz	w2, 6658 <__nptl_setxid+0x1ac>
    6638:	aa0503e0 	mov	x0, x5
    663c:	d2801001 	mov	x1, #0x80                  	// #128
    6640:	93407c42 	sxtw	x2, w2
    6644:	d2800003 	mov	x3, #0x0                   	// #0
    6648:	d2800c48 	mov	x8, #0x62                  	// #98
    664c:	d4000001 	svc	#0x0
    6650:	b9402282 	ldr	w2, [x20,#32]
    6654:	35ffff22 	cbnz	w2, 6638 <__nptl_setxid+0x18c>
    6658:	35fff984 	cbnz	w4, 6588 <__nptl_setxid+0xdc>
    665c:	910962f7 	add	x23, x23, #0x258
    6660:	52800026 	mov	w6, #0x1                   	// #1
    6664:	f8410ee4 	ldr	x4, [x23,#16]!
    6668:	eb17009f 	cmp	x4, x23
    666c:	54000320 	b.eq	66d0 <__nptl_setxid+0x224>
    6670:	d1030085 	sub	x5, x4, #0xc0
    6674:	eb05027f 	cmp	x19, x5
    6678:	54000260 	b.eq	66c4 <__nptl_setxid+0x218>
    667c:	b94108a1 	ldr	w1, [x5,#264]
    6680:	36300221 	tbz	w1, #6, 66c4 <__nptl_setxid+0x218>
    6684:	b9005fa1 	str	w1, [x29,#92]
    6688:	12197823 	and	w3, w1, #0xffffffbf
    668c:	91012082 	add	x2, x4, #0x48
    6690:	885ffc40 	ldaxr	w0, [x2]
    6694:	6b01001f 	cmp	w0, w1
    6698:	54000061 	b.ne	66a4 <__nptl_setxid+0x1f8>
    669c:	88077c43 	stxr	w7, w3, [x2]
    66a0:	35ffff87 	cbnz	w7, 6690 <__nptl_setxid+0x1e4>
    66a4:	54000c21 	b.ne	6828 <__nptl_setxid+0x37c>
    66a8:	b9041ca6 	str	w6, [x5,#1052]
    66ac:	910d7080 	add	x0, x4, #0x35c
    66b0:	d2801021 	mov	x1, #0x81                  	// #129
    66b4:	d2800022 	mov	x2, #0x1                   	// #1
    66b8:	d2800003 	mov	x3, #0x0                   	// #0
    66bc:	d2800c48 	mov	x8, #0x62                  	// #98
    66c0:	d4000001 	svc	#0x0
    66c4:	f9400084 	ldr	x4, [x4]
    66c8:	eb17009f 	cmp	x4, x23
    66cc:	54fffd21 	b.ne	6670 <__nptl_setxid+0x1c4>
    66d0:	910a42a0 	add	x0, x21, #0x290
    66d4:	52800027 	mov	w7, #0x1                   	// #1
    66d8:	91006006 	add	x6, x0, #0x18
    66dc:	f9400c04 	ldr	x4, [x0,#24]
    66e0:	eb06009f 	cmp	x4, x6
    66e4:	54000320 	b.eq	6748 <__nptl_setxid+0x29c>
    66e8:	d1030085 	sub	x5, x4, #0xc0
    66ec:	eb05027f 	cmp	x19, x5
    66f0:	54000260 	b.eq	673c <__nptl_setxid+0x290>
    66f4:	b94108a1 	ldr	w1, [x5,#264]
    66f8:	36300221 	tbz	w1, #6, 673c <__nptl_setxid+0x290>
    66fc:	b9005fa1 	str	w1, [x29,#92]
    6700:	12197823 	and	w3, w1, #0xffffffbf
    6704:	91012082 	add	x2, x4, #0x48
    6708:	885ffc40 	ldaxr	w0, [x2]
    670c:	6b01001f 	cmp	w0, w1
    6710:	54000061 	b.ne	671c <__nptl_setxid+0x270>
    6714:	88087c43 	stxr	w8, w3, [x2]
    6718:	35ffff88 	cbnz	w8, 6708 <__nptl_setxid+0x25c>
    671c:	540008a1 	b.ne	6830 <__nptl_setxid+0x384>
    6720:	b9041ca7 	str	w7, [x5,#1052]
    6724:	910d7080 	add	x0, x4, #0x35c
    6728:	d2801021 	mov	x1, #0x81                  	// #129
    672c:	d2800022 	mov	x2, #0x1                   	// #1
    6730:	d2800003 	mov	x3, #0x0                   	// #0
    6734:	d2800c48 	mov	x8, #0x62                  	// #98
    6738:	d4000001 	svc	#0x0
    673c:	f9400084 	ldr	x4, [x4]
    6740:	eb06009f 	cmp	x4, x6
    6744:	54fffd21 	b.ne	66e8 <__nptl_setxid+0x23c>
    6748:	f9400680 	ldr	x0, [x20,#8]
    674c:	f9400a81 	ldr	x1, [x20,#16]
    6750:	f9400e82 	ldr	x2, [x20,#24]
    6754:	b9800288 	ldrsw	x8, [x20]
    6758:	d4000001 	svc	#0x0
    675c:	3140041f 	cmn	w0, #0x1, lsl #12
    6760:	2a0003e5 	mov	w5, w0
    6764:	540006e8 	b.hi	6840 <__nptl_setxid+0x394>
    6768:	52800002 	mov	w2, #0x0                   	// #0
    676c:	b9402681 	ldr	w1, [x20,#36]
    6770:	6b01005f 	cmp	w2, w1
    6774:	54000180 	b.eq	67a4 <__nptl_setxid+0x2f8>
    6778:	3100043f 	cmn	w1, #0x1
    677c:	54000881 	b.ne	688c <__nptl_setxid+0x3e0>
    6780:	b9005fa1 	str	w1, [x29,#92]
    6784:	91009281 	add	x1, x20, #0x24
    6788:	b9405fa3 	ldr	w3, [x29,#92]
    678c:	885ffc24 	ldaxr	w4, [x1]
    6790:	6b03009f 	cmp	w4, w3
    6794:	54000061 	b.ne	67a0 <__nptl_setxid+0x2f4>
    6798:	88007c22 	stxr	w0, w2, [x1]
    679c:	35ffff80 	cbnz	w0, 678c <__nptl_setxid+0x2e0>
    67a0:	540004c1 	b.ne	6838 <__nptl_setxid+0x38c>
    67a4:	910a42b5 	add	x21, x21, #0x290
    67a8:	52800001 	mov	w1, #0x0                   	// #0
    67ac:	910042b5 	add	x21, x21, #0x10
    67b0:	885f7ea0 	ldxr	w0, [x21]
    67b4:	8802fea1 	stlxr	w2, w1, [x21]
    67b8:	35ffffc2 	cbnz	w2, 67b0 <__nptl_setxid+0x304>
    67bc:	7100041f 	cmp	w0, #0x1
    67c0:	540004cc 	b.gt	6858 <__nptl_setxid+0x3ac>
    67c4:	2a0503e0 	mov	w0, w5
    67c8:	f94023f9 	ldr	x25, [sp,#64]
    67cc:	a94153f3 	ldp	x19, x20, [sp,#16]
    67d0:	a9425bf5 	ldp	x21, x22, [sp,#32]
    67d4:	a94363f7 	ldp	x23, x24, [sp,#48]
    67d8:	a8c67bfd 	ldp	x29, x30, [sp],#96
    67dc:	d65f03c0 	ret
    67e0:	91008280 	add	x0, x20, #0x20
    67e4:	885ffc01 	ldaxr	w1, [x0]
    67e8:	11000422 	add	w2, w1, #0x1
    67ec:	88057c02 	stxr	w5, w2, [x0]
    67f0:	35ffffa5 	cbnz	w5, 67e4 <__nptl_setxid+0x338>
    67f4:	b90057a1 	str	w1, [x29,#84]
    67f8:	52800020 	mov	w0, #0x1                   	// #1
    67fc:	b94057a1 	ldr	w1, [x29,#84]
    6800:	17ffff73 	b	65cc <__nptl_setxid+0x120>
    6804:	91008280 	add	x0, x20, #0x20
    6808:	885ffc01 	ldaxr	w1, [x0]
    680c:	11000422 	add	w2, w1, #0x1
    6810:	88057c02 	stxr	w5, w2, [x0]
    6814:	35ffffa5 	cbnz	w5, 6808 <__nptl_setxid+0x35c>
    6818:	b9005ba1 	str	w1, [x29,#88]
    681c:	52800020 	mov	w0, #0x1                   	// #1
    6820:	b9405ba1 	ldr	w1, [x29,#88]
    6824:	17ffff7e 	b	661c <__nptl_setxid+0x170>
    6828:	b9005fa0 	str	w0, [x29,#92]
    682c:	17ffff94 	b	667c <__nptl_setxid+0x1d0>
    6830:	b9005fa0 	str	w0, [x29,#92]
    6834:	17ffffb0 	b	66f4 <__nptl_setxid+0x248>
    6838:	b9005fa4 	str	w4, [x29,#92]
    683c:	17ffffcc 	b	676c <__nptl_setxid+0x2c0>
    6840:	4b0003e2 	neg	w2, w0
    6844:	b0000140 	adrp	x0, 2f000 <__FRAME_END__+0x18e30>
    6848:	f947c400 	ldr	x0, [x0,#3976]
    684c:	12800005 	mov	w5, #0xffffffff            	// #-1
    6850:	b8206ac2 	str	w2, [x22,x0]
    6854:	17ffffc6 	b	676c <__nptl_setxid+0x2c0>
    6858:	aa1503e0 	mov	x0, x21
    685c:	d2801021 	mov	x1, #0x81                  	// #129
    6860:	d2800022 	mov	x2, #0x1                   	// #1
    6864:	d2800003 	mov	x3, #0x0                   	// #0
    6868:	d2800c48 	mov	x8, #0x62                  	// #98
    686c:	d4000001 	svc	#0x0
    6870:	2a0503e0 	mov	w0, w5
    6874:	f94023f9 	ldr	x25, [sp,#64]
    6878:	a94153f3 	ldp	x19, x20, [sp,#16]
    687c:	a9425bf5 	ldp	x21, x22, [sp,#32]
    6880:	a94363f7 	ldp	x23, x24, [sp,#48]
    6884:	a8c67bfd 	ldp	x29, x30, [sp],#96
    6888:	d65f03c0 	ret
    688c:	97fffa39 	bl	5170 <abort@plt>

0000000000006890 <__pthread_init_static_tls>:
    6890:	a9bb7bfd 	stp	x29, x30, [sp,#-80]!
    6894:	910003fd 	mov	x29, sp
    6898:	a9025bf5 	stp	x21, x22, [sp,#32]
    689c:	d0000175 	adrp	x21, 34000 <__GI___pthread_keys+0x3d78>
    68a0:	f9001bf7 	str	x23, [sp,#48]
    68a4:	910a42a1 	add	x1, x21, #0x290
    68a8:	b9004fbf 	str	wzr, [x29,#76]
    68ac:	a90153f3 	stp	x19, x20, [sp,#16]
    68b0:	aa0003f3 	mov	x19, x0
    68b4:	91004020 	add	x0, x1, #0x10
    68b8:	52800021 	mov	w1, #0x1                   	// #1
    68bc:	885ffc02 	ldaxr	w2, [x0]
    68c0:	6b1f005f 	cmp	w2, wzr
    68c4:	54000061 	b.ne	68d0 <__pthread_init_static_tls+0x40>
    68c8:	88037c01 	stxr	w3, w1, [x0]
    68cc:	35ffff83 	cbnz	w3, 68bc <__pthread_init_static_tls+0x2c>
    68d0:	54000881 	b.ne	69e0 <__pthread_init_static_tls+0x150>
    68d4:	d0000156 	adrp	x22, 30000 <_GLOBAL_OFFSET_TABLE_+0x88>
    68d8:	52800037 	mov	w23, #0x1                   	// #1
    68dc:	910962d6 	add	x22, x22, #0x258
    68e0:	f8410ed4 	ldr	x20, [x22,#16]!
    68e4:	eb16029f 	cmp	x20, x22
    68e8:	540002c0 	b.eq	6940 <__pthread_init_static_tls+0xb0>
    68ec:	f9422262 	ldr	x2, [x19,#1088]
    68f0:	f9431a83 	ldr	x3, [x20,#1584]
    68f4:	f9421e61 	ldr	x1, [x19,#1080]
    68f8:	d37cec42 	lsl	x2, x2, #4
    68fc:	8b020064 	add	x4, x3, x2
    6900:	9118c021 	add	x1, x1, #0x630
    6904:	8b010281 	add	x1, x20, x1
    6908:	f8226861 	str	x1, [x3,x2]
    690c:	39002097 	strb	w23, [x4,#8]
    6910:	aa0103e0 	mov	x0, x1
    6914:	f9420e62 	ldr	x2, [x19,#1048]
    6918:	f9420a61 	ldr	x1, [x19,#1040]
    691c:	97fffa51 	bl	5260 <mempcpy@plt>
    6920:	f9421263 	ldr	x3, [x19,#1056]
    6924:	52800001 	mov	w1, #0x0                   	// #0
    6928:	f9420e62 	ldr	x2, [x19,#1048]
    692c:	cb020062 	sub	x2, x3, x2
    6930:	97fff9d8 	bl	5090 <memset@plt>
    6934:	f9400294 	ldr	x20, [x20]
    6938:	eb16029f 	cmp	x20, x22
    693c:	54fffd81 	b.ne	68ec <__pthread_init_static_tls+0x5c>
    6940:	910a42a0 	add	x0, x21, #0x290
    6944:	52800037 	mov	w23, #0x1                   	// #1
    6948:	91006016 	add	x22, x0, #0x18
    694c:	f9400c14 	ldr	x20, [x0,#24]
    6950:	eb16029f 	cmp	x20, x22
    6954:	540002c0 	b.eq	69ac <__pthread_init_static_tls+0x11c>
    6958:	f9422262 	ldr	x2, [x19,#1088]
    695c:	f9431a83 	ldr	x3, [x20,#1584]
    6960:	f9421e61 	ldr	x1, [x19,#1080]
    6964:	d37cec42 	lsl	x2, x2, #4
    6968:	8b020064 	add	x4, x3, x2
    696c:	9118c021 	add	x1, x1, #0x630
    6970:	8b010281 	add	x1, x20, x1
    6974:	f8226861 	str	x1, [x3,x2]
    6978:	39002097 	strb	w23, [x4,#8]
    697c:	aa0103e0 	mov	x0, x1
    6980:	f9420e62 	ldr	x2, [x19,#1048]
    6984:	f9420a61 	ldr	x1, [x19,#1040]
    6988:	97fffa36 	bl	5260 <mempcpy@plt>
    698c:	f9421263 	ldr	x3, [x19,#1056]
    6990:	52800001 	mov	w1, #0x0                   	// #0
    6994:	f9420e62 	ldr	x2, [x19,#1048]
    6998:	cb020062 	sub	x2, x3, x2
    699c:	97fff9bd 	bl	5090 <memset@plt>
    69a0:	f9400294 	ldr	x20, [x20]
    69a4:	eb16029f 	cmp	x20, x22
    69a8:	54fffd81 	b.ne	6958 <__pthread_init_static_tls+0xc8>
    69ac:	910a42a0 	add	x0, x21, #0x290
    69b0:	52800002 	mov	w2, #0x0                   	// #0
    69b4:	91004000 	add	x0, x0, #0x10
    69b8:	885f7c01 	ldxr	w1, [x0]
    69bc:	8803fc02 	stlxr	w3, w2, [x0]
    69c0:	35ffffc3 	cbnz	w3, 69b8 <__pthread_init_static_tls+0x128>
    69c4:	7100043f 	cmp	w1, #0x1
    69c8:	5400012c 	b.gt	69ec <__pthread_init_static_tls+0x15c>
    69cc:	a94153f3 	ldp	x19, x20, [sp,#16]
    69d0:	a9425bf5 	ldp	x21, x22, [sp,#32]
    69d4:	f9401bf7 	ldr	x23, [sp,#48]
    69d8:	a8c57bfd 	ldp	x29, x30, [sp],#80
    69dc:	d65f03c0 	ret
    69e0:	b9004fa2 	str	w2, [x29,#76]
    69e4:	94002361 	bl	f768 <__lll_lock_wait_private>
    69e8:	17ffffbb 	b	68d4 <__pthread_init_static_tls+0x44>
    69ec:	d2801021 	mov	x1, #0x81                  	// #129
    69f0:	d2800022 	mov	x2, #0x1                   	// #1
    69f4:	d2800003 	mov	x3, #0x0                   	// #0
    69f8:	d2800c48 	mov	x8, #0x62                  	// #98
    69fc:	d4000001 	svc	#0x0
    6a00:	a94153f3 	ldp	x19, x20, [sp,#16]
    6a04:	a9425bf5 	ldp	x21, x22, [sp,#32]
    6a08:	f9401bf7 	ldr	x23, [sp,#48]
    6a0c:	a8c57bfd 	ldp	x29, x30, [sp],#80
    6a10:	d65f03c0 	ret

0000000000006a14 <__wait_lookup_done>:
    6a14:	a9bd7bfd 	stp	x29, x30, [sp,#-48]!
    6a18:	52800021 	mov	w1, #0x1                   	// #1
    6a1c:	910003fd 	mov	x29, sp
    6a20:	f9000bf3 	str	x19, [sp,#16]
    6a24:	d0000173 	adrp	x19, 34000 <__GI___pthread_keys+0x3d78>
    6a28:	910a4260 	add	x0, x19, #0x290
    6a2c:	b9002fbf 	str	wzr, [x29,#44]
    6a30:	91004000 	add	x0, x0, #0x10
    6a34:	885ffc02 	ldaxr	w2, [x0]
    6a38:	6b1f005f 	cmp	w2, wzr
    6a3c:	54000061 	b.ne	6a48 <__wait_lookup_done+0x34>
    6a40:	88037c01 	stxr	w3, w1, [x0]
    6a44:	35ffff83 	cbnz	w3, 6a34 <__wait_lookup_done+0x20>
    6a48:	540004c1 	b.ne	6ae0 <__wait_lookup_done+0xcc>
    6a4c:	d0000147 	adrp	x7, 30000 <_GLOBAL_OFFSET_TABLE_+0x88>
    6a50:	d53bd046 	mrs	x6, tpidr_el0
    6a54:	910960e7 	add	x7, x7, #0x258
    6a58:	d11bc0c6 	sub	x6, x6, #0x6f0
    6a5c:	52800029 	mov	w9, #0x1                   	// #1
    6a60:	5280004a 	mov	w10, #0x2                   	// #2
    6a64:	f8410ce4 	ldr	x4, [x7,#16]!
    6a68:	eb07009f 	cmp	x4, x7
    6a6c:	540000a1 	b.ne	6a80 <__wait_lookup_done+0x6c>
    6a70:	14000023 	b	6afc <__wait_lookup_done+0xe8>
    6a74:	f9400084 	ldr	x4, [x4]
    6a78:	eb07009f 	cmp	x4, x7
    6a7c:	54000400 	b.eq	6afc <__wait_lookup_done+0xe8>
    6a80:	d1030081 	sub	x1, x4, #0xc0
    6a84:	eb0100df 	cmp	x6, x1
    6a88:	54ffff60 	b.eq	6a74 <__wait_lookup_done+0x60>
    6a8c:	b8544082 	ldr	w2, [x4,#-188]
    6a90:	34ffff22 	cbz	w2, 6a74 <__wait_lookup_done+0x60>
    6a94:	b9002fa9 	str	w9, [x29,#44]
    6a98:	91001025 	add	x5, x1, #0x4
    6a9c:	2a0903e0 	mov	w0, w9
    6aa0:	885ffca1 	ldaxr	w1, [x5]
    6aa4:	6b00003f 	cmp	w1, w0
    6aa8:	54000061 	b.ne	6ab4 <__wait_lookup_done+0xa0>
    6aac:	88027caa 	stxr	w2, w10, [x5]
    6ab0:	35ffff82 	cbnz	w2, 6aa0 <__wait_lookup_done+0x8c>
    6ab4:	540001c1 	b.ne	6aec <__wait_lookup_done+0xd8>
    6ab8:	aa0503e0 	mov	x0, x5
    6abc:	d2801001 	mov	x1, #0x80                  	// #128
    6ac0:	d2800042 	mov	x2, #0x2                   	// #2
    6ac4:	d2800003 	mov	x3, #0x0                   	// #0
    6ac8:	d2800c48 	mov	x8, #0x62                  	// #98
    6acc:	d4000001 	svc	#0x0
    6ad0:	b8544080 	ldr	w0, [x4,#-188]
    6ad4:	7100081f 	cmp	w0, #0x2
    6ad8:	54ffff00 	b.eq	6ab8 <__wait_lookup_done+0xa4>
    6adc:	17ffffe6 	b	6a74 <__wait_lookup_done+0x60>
    6ae0:	b9002fa2 	str	w2, [x29,#44]
    6ae4:	94002321 	bl	f768 <__lll_lock_wait_private>
    6ae8:	17ffffd9 	b	6a4c <__wait_lookup_done+0x38>
    6aec:	b9002fa1 	str	w1, [x29,#44]
    6af0:	f9400084 	ldr	x4, [x4]
    6af4:	eb07009f 	cmp	x4, x7
    6af8:	54fffc41 	b.ne	6a80 <__wait_lookup_done+0x6c>
    6afc:	910a4260 	add	x0, x19, #0x290
    6b00:	52800029 	mov	w9, #0x1                   	// #1
    6b04:	91006007 	add	x7, x0, #0x18
    6b08:	5280004a 	mov	w10, #0x2                   	// #2
    6b0c:	f9400c04 	ldr	x4, [x0,#24]
    6b10:	eb07009f 	cmp	x4, x7
    6b14:	540000a1 	b.ne	6b28 <__wait_lookup_done+0x114>
    6b18:	14000020 	b	6b98 <__wait_lookup_done+0x184>
    6b1c:	f9400084 	ldr	x4, [x4]
    6b20:	eb07009f 	cmp	x4, x7
    6b24:	540003a0 	b.eq	6b98 <__wait_lookup_done+0x184>
    6b28:	d1030081 	sub	x1, x4, #0xc0
    6b2c:	eb0100df 	cmp	x6, x1
    6b30:	54ffff60 	b.eq	6b1c <__wait_lookup_done+0x108>
    6b34:	b8544082 	ldr	w2, [x4,#-188]
    6b38:	34ffff22 	cbz	w2, 6b1c <__wait_lookup_done+0x108>
    6b3c:	b9002fa9 	str	w9, [x29,#44]
    6b40:	91001025 	add	x5, x1, #0x4
    6b44:	2a0903e0 	mov	w0, w9
    6b48:	885ffca1 	ldaxr	w1, [x5]
    6b4c:	6b00003f 	cmp	w1, w0
    6b50:	54000061 	b.ne	6b5c <__wait_lookup_done+0x148>
    6b54:	88027caa 	stxr	w2, w10, [x5]
    6b58:	35ffff82 	cbnz	w2, 6b48 <__wait_lookup_done+0x134>
    6b5c:	54000161 	b.ne	6b88 <__wait_lookup_done+0x174>
    6b60:	aa0503e0 	mov	x0, x5
    6b64:	d2801001 	mov	x1, #0x80                  	// #128
    6b68:	d2800042 	mov	x2, #0x2                   	// #2
    6b6c:	d2800003 	mov	x3, #0x0                   	// #0
    6b70:	d2800c48 	mov	x8, #0x62                  	// #98
    6b74:	d4000001 	svc	#0x0
    6b78:	b8544080 	ldr	w0, [x4,#-188]
    6b7c:	7100081f 	cmp	w0, #0x2
    6b80:	54ffff00 	b.eq	6b60 <__wait_lookup_done+0x14c>
    6b84:	17ffffe6 	b	6b1c <__wait_lookup_done+0x108>
    6b88:	b9002fa1 	str	w1, [x29,#44]
    6b8c:	f9400084 	ldr	x4, [x4]
    6b90:	eb07009f 	cmp	x4, x7
    6b94:	54fffca1 	b.ne	6b28 <__wait_lookup_done+0x114>
    6b98:	910a4260 	add	x0, x19, #0x290
    6b9c:	52800002 	mov	w2, #0x0                   	// #0
    6ba0:	91004000 	add	x0, x0, #0x10
    6ba4:	885f7c01 	ldxr	w1, [x0]
    6ba8:	8803fc02 	stlxr	w3, w2, [x0]
    6bac:	35ffffc3 	cbnz	w3, 6ba4 <__wait_lookup_done+0x190>
    6bb0:	7100043f 	cmp	w1, #0x1
    6bb4:	5400008c 	b.gt	6bc4 <__wait_lookup_done+0x1b0>
    6bb8:	f9400bf3 	ldr	x19, [sp,#16]
    6bbc:	a8c37bfd 	ldp	x29, x30, [sp],#48
    6bc0:	d65f03c0 	ret
    6bc4:	d2801021 	mov	x1, #0x81                  	// #129
    6bc8:	d2800022 	mov	x2, #0x1                   	// #1
    6bcc:	d2800003 	mov	x3, #0x0                   	// #0
    6bd0:	d2800c48 	mov	x8, #0x62                  	// #98
    6bd4:	d4000001 	svc	#0x0
    6bd8:	f9400bf3 	ldr	x19, [sp,#16]
    6bdc:	a8c37bfd 	ldp	x29, x30, [sp],#48
    6be0:	d65f03c0 	ret

0000000000006be4 <__find_in_stack_list>:
    6be4:	a9bd7bfd 	stp	x29, x30, [sp,#-48]!
    6be8:	910003fd 	mov	x29, sp
    6bec:	a90153f3 	stp	x19, x20, [sp,#16]
    6bf0:	d0000174 	adrp	x20, 34000 <__GI___pthread_keys+0x3d78>
    6bf4:	aa0003f3 	mov	x19, x0
    6bf8:	910a4281 	add	x1, x20, #0x290
    6bfc:	b9002fbf 	str	wzr, [x29,#44]
    6c00:	91004020 	add	x0, x1, #0x10
    6c04:	52800021 	mov	w1, #0x1                   	// #1
    6c08:	885ffc02 	ldaxr	w2, [x0]
    6c0c:	6b1f005f 	cmp	w2, wzr
    6c10:	54000061 	b.ne	6c1c <__find_in_stack_list+0x38>
    6c14:	88037c01 	stxr	w3, w1, [x0]
    6c18:	35ffff83 	cbnz	w3, 6c08 <__find_in_stack_list+0x24>
    6c1c:	54000421 	b.ne	6ca0 <__find_in_stack_list+0xbc>
    6c20:	d0000143 	adrp	x3, 30000 <_GLOBAL_OFFSET_TABLE_+0x88>
    6c24:	91096063 	add	x3, x3, #0x258
    6c28:	f8410c61 	ldr	x1, [x3,#16]!
    6c2c:	eb03003f 	cmp	x1, x3
    6c30:	54000160 	b.eq	6c5c <__find_in_stack_list+0x78>
    6c34:	d1030020 	sub	x0, x1, #0xc0
    6c38:	eb00027f 	cmp	x19, x0
    6c3c:	54000081 	b.ne	6c4c <__find_in_stack_list+0x68>
    6c40:	1400001b 	b	6cac <__find_in_stack_list+0xc8>
    6c44:	eb02027f 	cmp	x19, x2
    6c48:	54000320 	b.eq	6cac <__find_in_stack_list+0xc8>
    6c4c:	f9400021 	ldr	x1, [x1]
    6c50:	eb03003f 	cmp	x1, x3
    6c54:	d1030022 	sub	x2, x1, #0xc0
    6c58:	54ffff61 	b.ne	6c44 <__find_in_stack_list+0x60>
    6c5c:	910a4280 	add	x0, x20, #0x290
    6c60:	91006002 	add	x2, x0, #0x18
    6c64:	f9400c00 	ldr	x0, [x0,#24]
    6c68:	eb02001f 	cmp	x0, x2
    6c6c:	54000160 	b.eq	6c98 <__find_in_stack_list+0xb4>
    6c70:	d1030001 	sub	x1, x0, #0xc0
    6c74:	eb01027f 	cmp	x19, x1
    6c78:	54000081 	b.ne	6c88 <__find_in_stack_list+0xa4>
    6c7c:	1400000d 	b	6cb0 <__find_in_stack_list+0xcc>
    6c80:	eb01027f 	cmp	x19, x1
    6c84:	54000160 	b.eq	6cb0 <__find_in_stack_list+0xcc>
    6c88:	f9400000 	ldr	x0, [x0]
    6c8c:	eb02001f 	cmp	x0, x2
    6c90:	d1030001 	sub	x1, x0, #0xc0
    6c94:	54ffff61 	b.ne	6c80 <__find_in_stack_list+0x9c>
    6c98:	d2800013 	mov	x19, #0x0                   	// #0
    6c9c:	14000005 	b	6cb0 <__find_in_stack_list+0xcc>
    6ca0:	b9002fa2 	str	w2, [x29,#44]
    6ca4:	940022b1 	bl	f768 <__lll_lock_wait_private>
    6ca8:	17ffffde 	b	6c20 <__find_in_stack_list+0x3c>
    6cac:	b4fffd93 	cbz	x19, 6c5c <__find_in_stack_list+0x78>
    6cb0:	910a4280 	add	x0, x20, #0x290
    6cb4:	52800002 	mov	w2, #0x0                   	// #0
    6cb8:	91004000 	add	x0, x0, #0x10
    6cbc:	885f7c01 	ldxr	w1, [x0]
    6cc0:	8803fc02 	stlxr	w3, w2, [x0]
    6cc4:	35ffffc3 	cbnz	w3, 6cbc <__find_in_stack_list+0xd8>
    6cc8:	7100043f 	cmp	w1, #0x1
    6ccc:	540000ac 	b.gt	6ce0 <__find_in_stack_list+0xfc>
    6cd0:	aa1303e0 	mov	x0, x19
    6cd4:	a94153f3 	ldp	x19, x20, [sp,#16]
    6cd8:	a8c37bfd 	ldp	x29, x30, [sp],#48
    6cdc:	d65f03c0 	ret
    6ce0:	d2801021 	mov	x1, #0x81                  	// #129
    6ce4:	d2800022 	mov	x2, #0x1                   	// #1
    6ce8:	d2800003 	mov	x3, #0x0                   	// #0
    6cec:	d2800c48 	mov	x8, #0x62                  	// #98
    6cf0:	d4000001 	svc	#0x0
    6cf4:	aa1303e0 	mov	x0, x19
    6cf8:	a94153f3 	ldp	x19, x20, [sp,#16]
    6cfc:	a8c37bfd 	ldp	x29, x30, [sp],#48
    6d00:	d65f03c0 	ret

0000000000006d04 <__nptl_deallocate_tsd>:
    6d04:	a9ba7bfd 	stp	x29, x30, [sp,#-96]!
    6d08:	910003fd 	mov	x29, sp
    6d0c:	a90363f7 	stp	x23, x24, [sp,#48]
    6d10:	d53bd058 	mrs	x24, tpidr_el0
    6d14:	a9046bf9 	stp	x25, x26, [sp,#64]
    6d18:	d11bc319 	sub	x25, x24, #0x6f0
    6d1c:	a90153f3 	stp	x19, x20, [sp,#16]
    6d20:	a9025bf5 	stp	x21, x22, [sp,#32]
    6d24:	39504320 	ldrb	w0, [x25,#1040]
    6d28:	a90573fb 	stp	x27, x28, [sp,#80]
    6d2c:	340006e0 	cbz	w0, 6e08 <__nptl_deallocate_tsd+0x104>
    6d30:	d280009a 	mov	x26, #0x4                   	// #4
    6d34:	d10f831c 	sub	x28, x24, #0x3e0
    6d38:	d000015b 	adrp	x27, 30000 <_GLOBAL_OFFSET_TABLE_+0x88>
    6d3c:	3910433f 	strb	wzr, [x25,#1040]
    6d40:	aa1c03f7 	mov	x23, x28
    6d44:	91124375 	add	x21, x27, #0x490
    6d48:	d2800416 	mov	x22, #0x20                  	// #32
    6d4c:	f94002f3 	ldr	x19, [x23]
    6d50:	b40002d3 	cbz	x19, 6da8 <__nptl_deallocate_tsd+0xa4>
    6d54:	91002273 	add	x19, x19, #0x8
    6d58:	d10802b4 	sub	x20, x21, #0x200
    6d5c:	14000005 	b	6d70 <__nptl_deallocate_tsd+0x6c>
    6d60:	91004294 	add	x20, x20, #0x10
    6d64:	91004273 	add	x19, x19, #0x10
    6d68:	eb15029f 	cmp	x20, x21
    6d6c:	540001e0 	b.eq	6da8 <__nptl_deallocate_tsd+0xa4>
    6d70:	f9400260 	ldr	x0, [x19]
    6d74:	b4ffff60 	cbz	x0, 6d60 <__nptl_deallocate_tsd+0x5c>
    6d78:	f85f8282 	ldr	x2, [x20,#-8]
    6d7c:	f85f8263 	ldr	x3, [x19,#-8]
    6d80:	f900027f 	str	xzr, [x19]
    6d84:	eb02007f 	cmp	x3, x2
    6d88:	54fffec1 	b.ne	6d60 <__nptl_deallocate_tsd+0x5c>
    6d8c:	f9400282 	ldr	x2, [x20]
    6d90:	b4fffe82 	cbz	x2, 6d60 <__nptl_deallocate_tsd+0x5c>
    6d94:	d63f0040 	blr	x2
    6d98:	91004294 	add	x20, x20, #0x10
    6d9c:	eb15029f 	cmp	x20, x21
    6da0:	91004273 	add	x19, x19, #0x10
    6da4:	54fffe61 	b.ne	6d70 <__nptl_deallocate_tsd+0x6c>
    6da8:	910082d6 	add	x22, x22, #0x20
    6dac:	910022f7 	add	x23, x23, #0x8
    6db0:	f11082df 	cmp	x22, #0x420
    6db4:	910802b5 	add	x21, x21, #0x200
    6db8:	54fffca1 	b.ne	6d4c <__nptl_deallocate_tsd+0x48>
    6dbc:	39504320 	ldrb	w0, [x25,#1040]
    6dc0:	340000e0 	cbz	w0, 6ddc <__nptl_deallocate_tsd+0xd8>
    6dc4:	f100075a 	subs	x26, x26, #0x1
    6dc8:	54fffba1 	b.ne	6d3c <__nptl_deallocate_tsd+0x38>
    6dcc:	91044320 	add	x0, x25, #0x110
    6dd0:	2a1a03e1 	mov	w1, w26
    6dd4:	d2804002 	mov	x2, #0x200                 	// #512
    6dd8:	97fff8ae 	bl	5090 <memset@plt>
    6ddc:	d10f6313 	sub	x19, x24, #0x3d8
    6de0:	d10b8314 	sub	x20, x24, #0x2e0
    6de4:	f9400261 	ldr	x1, [x19]
    6de8:	aa0103e0 	mov	x0, x1
    6dec:	b4000061 	cbz	x1, 6df8 <__nptl_deallocate_tsd+0xf4>
    6df0:	97fff90c 	bl	5220 <free@plt>
    6df4:	f900027f 	str	xzr, [x19]
    6df8:	91002273 	add	x19, x19, #0x8
    6dfc:	eb14027f 	cmp	x19, x20
    6e00:	54ffff21 	b.ne	6de4 <__nptl_deallocate_tsd+0xe0>
    6e04:	3910433f 	strb	wzr, [x25,#1040]
    6e08:	a94153f3 	ldp	x19, x20, [sp,#16]
    6e0c:	a9425bf5 	ldp	x21, x22, [sp,#32]
    6e10:	a94363f7 	ldp	x23, x24, [sp,#48]
    6e14:	a9446bf9 	ldp	x25, x26, [sp,#64]
    6e18:	a94573fb 	ldp	x27, x28, [sp,#80]
    6e1c:	a8c67bfd 	ldp	x29, x30, [sp],#96
    6e20:	d65f03c0 	ret

0000000000006e24 <__free_tcb>:
    6e24:	a9bd7bfd 	stp	x29, x30, [sp,#-48]!
    6e28:	91042002 	add	x2, x0, #0x108
    6e2c:	910003fd 	mov	x29, sp
    6e30:	f9000bf3 	str	x19, [sp,#16]
    6e34:	b9410801 	ldr	w1, [x0,#264]
    6e38:	b9002fa1 	str	w1, [x29,#44]
    6e3c:	321b0024 	orr	w4, w1, #0x20
    6e40:	2a0103e3 	mov	w3, w1
    6e44:	885ffc45 	ldaxr	w5, [x2]
    6e48:	6b0300bf 	cmp	w5, w3
    6e4c:	54000061 	b.ne	6e58 <__free_tcb+0x34>
    6e50:	88067c44 	stxr	w6, w4, [x2]
    6e54:	35ffff86 	cbnz	w6, 6e44 <__free_tcb+0x20>
    6e58:	54fffee1 	b.ne	6e34 <__free_tcb+0x10>
    6e5c:	372800c1 	tbnz	w1, #5, 6e74 <__free_tcb+0x50>
    6e60:	aa0003f3 	mov	x19, x0
    6e64:	f9425800 	ldr	x0, [x0,#1200]
    6e68:	b50000c0 	cbnz	x0, 6e80 <__free_tcb+0x5c>
    6e6c:	aa1303e0 	mov	x0, x19
    6e70:	97fffb81 	bl	5c74 <__deallocate_stack>
    6e74:	f9400bf3 	ldr	x19, [sp,#16]
    6e78:	a8c37bfd 	ldp	x29, x30, [sp],#48
    6e7c:	d65f03c0 	ret
    6e80:	f9025a7f 	str	xzr, [x19,#1200]
    6e84:	97fff8e7 	bl	5220 <free@plt>
    6e88:	17fffff9 	b	6e6c <__free_tcb+0x48>

0000000000006e8c <start_thread>:
    6e8c:	a9ae7bfd 	stp	x29, x30, [sp,#-288]!
    6e90:	9112e002 	add	x2, x0, #0x4b8
    6e94:	b0000141 	adrp	x1, 2f000 <__FRAME_END__+0x18e30>
    6e98:	f947cc21 	ldr	x1, [x1,#3992]
    6e9c:	910003fd 	mov	x29, sp
    6ea0:	a90153f3 	stp	x19, x20, [sp,#16]
    6ea4:	aa0003f3 	mov	x19, x0
    6ea8:	f90013f5 	str	x21, [sp,#32]
    6eac:	f9001fa0 	str	x0, [x29,#56]
    6eb0:	d53bd040 	mrs	x0, tpidr_el0
    6eb4:	f8216802 	str	x2, [x0,x1]
    6eb8:	97fff8d6 	bl	5210 <__ctype_init@plt>
    6ebc:	91107260 	add	x0, x19, #0x41c
    6ec0:	52800002 	mov	w2, #0x0                   	// #0
    6ec4:	885ffc01 	ldaxr	w1, [x0]
    6ec8:	88037c02 	stxr	w3, w2, [x0]
    6ecc:	35ffffc3 	cbnz	w3, 6ec4 <start_thread+0x38>
    6ed0:	3100083f 	cmn	w1, #0x2
    6ed4:	54000e00 	b.eq	7094 <start_thread+0x208>
    6ed8:	f9401fa2 	ldr	x2, [x29,#56]
    6edc:	d2800301 	mov	x1, #0x18                  	// #24
    6ee0:	d2800c68 	mov	x8, #0x63                  	// #99
    6ee4:	91038040 	add	x0, x2, #0xe0
    6ee8:	d4000001 	svc	#0x0
    6eec:	b9441440 	ldr	w0, [x2,#1044]
    6ef0:	37100880 	tbnz	w0, #2, 7000 <start_thread+0x174>
    6ef4:	910123a0 	add	x0, x29, #0x48
    6ef8:	f90083bf 	str	xzr, [x29,#256]
    6efc:	f90087bf 	str	xzr, [x29,#264]
    6f00:	97fff828 	bl	4fa0 <_setjmp@plt>
    6f04:	2a0003f3 	mov	w19, w0
    6f08:	35000160 	cbnz	w0, 6f34 <start_thread+0xa8>
    6f0c:	f9401fa2 	ldr	x2, [x29,#56]
    6f10:	910123a1 	add	x1, x29, #0x48
    6f14:	39504c40 	ldrb	w0, [x2,#1043]
    6f18:	f9008041 	str	x1, [x2,#256]
    6f1c:	350008e0 	cbnz	w0, 7038 <start_thread+0x1ac>
    6f20:	f9401fb3 	ldr	x19, [x29,#56]
    6f24:	f9421e61 	ldr	x1, [x19,#1080]
    6f28:	f9422260 	ldr	x0, [x19,#1088]
    6f2c:	d63f0020 	blr	x1
    6f30:	f9021660 	str	x0, [x19,#1064]
    6f34:	97fff873 	bl	5100 <__call_tls_dtors@plt>
    6f38:	97ffff73 	bl	6d04 <__nptl_deallocate_tsd>
    6f3c:	97fff879 	bl	5120 <__libc_thread_freeres@plt>
    6f40:	d0000140 	adrp	x0, 30000 <_GLOBAL_OFFSET_TABLE_+0x88>
    6f44:	91094000 	add	x0, x0, #0x250
    6f48:	885ffc01 	ldaxr	w1, [x0]
    6f4c:	51000422 	sub	w2, w1, #0x1
    6f50:	88037c02 	stxr	w3, w2, [x0]
    6f54:	35ffffa3 	cbnz	w3, 6f48 <start_thread+0xbc>
    6f58:	7100043f 	cmp	w1, #0x1
    6f5c:	54000ae0 	b.eq	70b8 <start_thread+0x22c>
    6f60:	f9401fa0 	ldr	x0, [x29,#56]
    6f64:	39504400 	ldrb	w0, [x0,#1041]
    6f68:	35000c00 	cbnz	w0, 70e8 <start_thread+0x25c>
    6f6c:	f9401fa0 	ldr	x0, [x29,#56]
    6f70:	91042001 	add	x1, x0, #0x108
    6f74:	f9401fa0 	ldr	x0, [x29,#56]
    6f78:	b9410800 	ldr	w0, [x0,#264]
    6f7c:	b90043a0 	str	w0, [x29,#64]
    6f80:	321c0003 	orr	w3, w0, #0x10
    6f84:	885ffc22 	ldaxr	w2, [x1]
    6f88:	6b00005f 	cmp	w2, w0
    6f8c:	54000061 	b.ne	6f98 <start_thread+0x10c>
    6f90:	88047c23 	stxr	w4, w3, [x1]
    6f94:	35ffff84 	cbnz	w4, 6f84 <start_thread+0xf8>
    6f98:	1a9f17e0 	cset	w0, eq
    6f9c:	35000040 	cbnz	w0, 6fa4 <start_thread+0x118>
    6fa0:	b90043a2 	str	w2, [x29,#64]
    6fa4:	34fffe80 	cbz	w0, 6f74 <start_thread+0xe8>
    6fa8:	97fff816 	bl	5000 <__getpagesize@plt>
    6fac:	f9401fa1 	ldr	x1, [x29,#56]
    6fb0:	f9424822 	ldr	x2, [x1,#1168]
    6fb4:	51000401 	sub	w1, w0, #0x1
    6fb8:	cb0203a0 	sub	x0, x29, x2
    6fbc:	93407c21 	sxtw	x1, w1
    6fc0:	8a210001 	bic	x1, x0, x1
    6fc4:	f140803f 	cmp	x1, #0x20, lsl #12
    6fc8:	54000f88 	b.hi	71b8 <start_thread+0x32c>
    6fcc:	f9401fa1 	ldr	x1, [x29,#56]
    6fd0:	f9421020 	ldr	x0, [x1,#1056]
    6fd4:	eb00003f 	cmp	x1, x0
    6fd8:	54000ea0 	b.eq	71ac <start_thread+0x320>
    6fdc:	f9401fa0 	ldr	x0, [x29,#56]
    6fe0:	b9410800 	ldr	w0, [x0,#264]
    6fe4:	373009a0 	tbnz	w0, #6, 7118 <start_thread+0x28c>
    6fe8:	d2800002 	mov	x2, #0x0                   	// #0
    6fec:	d2800ba1 	mov	x1, #0x5d                  	// #93
    6ff0:	aa0203e0 	mov	x0, x2
    6ff4:	aa0103e8 	mov	x8, x1
    6ff8:	d4000001 	svc	#0x0
    6ffc:	17fffffd 	b	6ff0 <start_thread+0x164>
    7000:	910123b3 	add	x19, x29, #0x48
    7004:	52800001 	mov	w1, #0x0                   	// #0
    7008:	aa1303e0 	mov	x0, x19
    700c:	d2801002 	mov	x2, #0x80                  	// #128
    7010:	97fff820 	bl	5090 <memset@plt>
    7014:	d2b00001 	mov	x1, #0x80000000            	// #2147483648
    7018:	d2800020 	mov	x0, #0x1                   	// #1
    701c:	f90027a1 	str	x1, [x29,#72]
    7020:	d2800002 	mov	x2, #0x0                   	// #0
    7024:	aa1303e1 	mov	x1, x19
    7028:	d2800103 	mov	x3, #0x8                   	// #8
    702c:	d28010e8 	mov	x8, #0x87                  	// #135
    7030:	d4000001 	svc	#0x0
    7034:	17ffffb0 	b	6ef4 <start_thread+0x68>
    7038:	94002178 	bl	f618 <__pthread_enable_asynccancel>
    703c:	2a0003f5 	mov	w21, w0
    7040:	f9401fa0 	ldr	x0, [x29,#56]
    7044:	52800021 	mov	w1, #0x1                   	// #1
    7048:	b90043b3 	str	w19, [x29,#64]
    704c:	91106014 	add	x20, x0, #0x418
    7050:	885ffe80 	ldaxr	w0, [x20]
    7054:	6b13001f 	cmp	w0, w19
    7058:	54000061 	b.ne	7064 <start_thread+0x1d8>
    705c:	88027e81 	stxr	w2, w1, [x20]
    7060:	35ffff82 	cbnz	w2, 7050 <start_thread+0x1c4>
    7064:	1a9f17e1 	cset	w1, eq
    7068:	34000221 	cbz	w1, 70ac <start_thread+0x220>
    706c:	340002a1 	cbz	w1, 70c0 <start_thread+0x234>
    7070:	52800001 	mov	w1, #0x0                   	// #0
    7074:	885f7e80 	ldxr	w0, [x20]
    7078:	8802fe81 	stlxr	w2, w1, [x20]
    707c:	35ffffc2 	cbnz	w2, 7074 <start_thread+0x1e8>
    7080:	7100041f 	cmp	w0, #0x1
    7084:	5400024c 	b.gt	70cc <start_thread+0x240>
    7088:	2a1503e0 	mov	w0, w21
    708c:	94002193 	bl	f6d8 <__pthread_disable_asynccancel>
    7090:	17ffffa4 	b	6f20 <start_thread+0x94>
    7094:	d2801021 	mov	x1, #0x81                  	// #129
    7098:	d2800022 	mov	x2, #0x1                   	// #1
    709c:	d2800003 	mov	x3, #0x0                   	// #0
    70a0:	d2800c48 	mov	x8, #0x62                  	// #98
    70a4:	d4000001 	svc	#0x0
    70a8:	17ffff8c 	b	6ed8 <start_thread+0x4c>
    70ac:	b90043a0 	str	w0, [x29,#64]
    70b0:	35fffe01 	cbnz	w1, 7070 <start_thread+0x1e4>
    70b4:	14000003 	b	70c0 <start_thread+0x234>
    70b8:	52800000 	mov	w0, #0x0                   	// #0
    70bc:	97fff7b5 	bl	4f90 <exit@plt>
    70c0:	aa1403e0 	mov	x0, x20
    70c4:	940021a9 	bl	f768 <__lll_lock_wait_private>
    70c8:	17ffffea 	b	7070 <start_thread+0x1e4>
    70cc:	aa1403e0 	mov	x0, x20
    70d0:	d2801021 	mov	x1, #0x81                  	// #129
    70d4:	d2800022 	mov	x2, #0x1                   	// #1
    70d8:	d2800003 	mov	x3, #0x0                   	// #0
    70dc:	d2800c48 	mov	x8, #0x62                  	// #98
    70e0:	d4000001 	svc	#0x0
    70e4:	17ffffe9 	b	7088 <start_thread+0x1fc>
    70e8:	b0000163 	adrp	x3, 34000 <__GI___pthread_keys+0x3d78>
    70ec:	f9401fa0 	ldr	x0, [x29,#56]
    70f0:	910a4063 	add	x3, x3, #0x290
    70f4:	b9444801 	ldr	w1, [x0,#1096]
    70f8:	b9402860 	ldr	w0, [x3,#40]
    70fc:	2a000020 	orr	w0, w1, w0
    7100:	3647f360 	tbz	w0, #8, 6f6c <start_thread+0xe0>
    7104:	f9401fa0 	ldr	x0, [x29,#56]
    7108:	f9423000 	ldr	x0, [x0,#1120]
    710c:	b4000280 	cbz	x0, 715c <start_thread+0x2d0>
    7110:	97fffa5e 	bl	5a88 <__GI___nptl_death_event>
    7114:	17ffff96 	b	6f6c <start_thread+0xe0>
    7118:	f9401fa0 	ldr	x0, [x29,#56]
    711c:	d2801006 	mov	x6, #0x80                  	// #128
    7120:	d2800004 	mov	x4, #0x0                   	// #0
    7124:	d2800c45 	mov	x5, #0x62                  	// #98
    7128:	91107007 	add	x7, x0, #0x41c
    712c:	aa0703e0 	mov	x0, x7
    7130:	aa0603e1 	mov	x1, x6
    7134:	aa0403e2 	mov	x2, x4
    7138:	aa0403e3 	mov	x3, x4
    713c:	aa0503e8 	mov	x8, x5
    7140:	d4000001 	svc	#0x0
    7144:	f9401fa0 	ldr	x0, [x29,#56]
    7148:	b9410800 	ldr	w0, [x0,#264]
    714c:	3737ff00 	tbnz	w0, #6, 712c <start_thread+0x2a0>
    7150:	f9401fa0 	ldr	x0, [x29,#56]
    7154:	b9041c04 	str	w4, [x0,#1052]
    7158:	17ffffa4 	b	6fe8 <start_thread+0x15c>
    715c:	f9401fa4 	ldr	x4, [x29,#56]
    7160:	aa0403e0 	mov	x0, x4
    7164:	f9022c04 	str	x4, [x0,#1112]
    7168:	52800120 	mov	w0, #0x9                   	// #9
    716c:	b9045080 	str	w0, [x4,#1104]
    7170:	aa0303e1 	mov	x1, x3
    7174:	f9401fa2 	ldr	x2, [x29,#56]
    7178:	f8430c20 	ldr	x0, [x1,#48]!
    717c:	f9023040 	str	x0, [x2,#1120]
    7180:	f90023a0 	str	x0, [x29,#64]
    7184:	c85ffc22 	ldaxr	x2, [x1]
    7188:	eb00005f 	cmp	x2, x0
    718c:	54000061 	b.ne	7198 <start_thread+0x30c>
    7190:	c8057c24 	stxr	w5, x4, [x1]
    7194:	35ffff85 	cbnz	w5, 7184 <start_thread+0x2f8>
    7198:	1a9f17e0 	cset	w0, eq
    719c:	35000040 	cbnz	w0, 71a4 <start_thread+0x318>
    71a0:	f90023a2 	str	x2, [x29,#64]
    71a4:	34fffe60 	cbz	w0, 7170 <start_thread+0x2e4>
    71a8:	17ffffda 	b	7110 <start_thread+0x284>
    71ac:	f9401fa0 	ldr	x0, [x29,#56]
    71b0:	97ffff1d 	bl	6e24 <__free_tcb>
    71b4:	17ffff8d 	b	6fe8 <start_thread+0x15c>
    71b8:	aa0203e0 	mov	x0, x2
    71bc:	d1408021 	sub	x1, x1, #0x20, lsl #12
    71c0:	52800082 	mov	w2, #0x4                   	// #4
    71c4:	97fff843 	bl	52d0 <__madvise@plt>
    71c8:	17ffff81 	b	6fcc <start_thread+0x140>

00000000000071cc <pthread_create@@GLIBC_2.17>:
    71cc:	a9b17bfd 	stp	x29, x30, [sp,#-240]!
    71d0:	910003fd 	mov	x29, sp
    71d4:	6d0627e8 	stp	d8, d9, [sp,#96]
    71d8:	a90363f7 	stp	x23, x24, [sp,#48]
    71dc:	6d072fea 	stp	d10, d11, [sp,#112]
    71e0:	a90573fb 	stp	x27, x28, [sp,#80]
    71e4:	6d0837ec 	stp	d12, d13, [sp,#128]
    71e8:	a90153f3 	stp	x19, x20, [sp,#16]
    71ec:	a9025bf5 	stp	x21, x22, [sp,#32]
    71f0:	a9046bf9 	stp	x25, x26, [sp,#64]
    71f4:	aa0103f8 	mov	x24, x1
    71f8:	aa0203fb 	mov	x27, x2
    71fc:	9e67000b 	fmov	d11, x0
    7200:	9e67006c 	fmov	d12, x3
    7204:	1e2703e8 	fmov	s8, wzr
    7208:	b40038a1 	cbz	x1, 791c <pthread_create@@GLIBC_2.17+0x750>
    720c:	97fff77d 	bl	5000 <__getpagesize@plt>
    7210:	f9401314 	ldr	x20, [x24,#32]
    7214:	51000400 	sub	w0, w0, #0x1
    7218:	93407c13 	sxtw	x19, w0
    721c:	b4001d14 	cbz	x20, 75bc <pthread_create@@GLIBC_2.17+0x3f0>
    7220:	b9400b00 	ldr	w0, [x24,#8]
    7224:	37185020 	tbnz	w0, #3, 7c28 <pthread_create@@GLIBC_2.17+0xa5c>
    7228:	9000014a 	adrp	x10, 2f000 <__FRAME_END__+0x18e30>
    722c:	b000016b 	adrp	x11, 34000 <__GI___pthread_keys+0x3d78>
    7230:	b000016c 	adrp	x12, 34000 <__GI___pthread_keys+0x3d78>
    7234:	f9400b19 	ldr	x25, [x24,#16]
    7238:	aa3303e0 	mvn	x0, x19
    723c:	52800095 	mov	w21, #0x4                   	// #4
    7240:	f947ed41 	ldr	x1, [x10,#4056]
    7244:	8b190279 	add	x25, x19, x25
    7248:	f9419162 	ldr	x2, [x11,#800]
    724c:	8a190019 	and	x25, x0, x25
    7250:	f9418d89 	ldr	x9, [x12,#792]
    7254:	528000fa 	mov	w26, #0x7                   	// #7
    7258:	b94fa021 	ldr	w1, [x1,#4000]
    725c:	91200042 	add	x2, x2, #0x800
    7260:	8b130053 	add	x19, x2, x19
    7264:	8a29029c 	bic	x28, x20, x9
    7268:	72000021 	ands	w1, w1, #0x1
    726c:	8b190273 	add	x19, x19, x25
    7270:	8a000273 	and	x19, x19, x0
    7274:	1a9f12b5 	csel	w21, w21, wzr, ne
    7278:	52800060 	mov	w0, #0x3                   	// #3
    727c:	6b1f003f 	cmp	w1, wzr
    7280:	1a801340 	csel	w0, w26, w0, ne
    7284:	eb13039f 	cmp	x28, x19
    7288:	1e27000d 	fmov	s13, w0
    728c:	54001d03 	b.cc	762c <pthread_create@@GLIBC_2.17+0x460>
    7290:	b0000174 	adrp	x20, 34000 <__GI___pthread_keys+0x3d78>
    7294:	b900b3bf 	str	wzr, [x29,#176]
    7298:	910a4280 	add	x0, x20, #0x290
    729c:	52800021 	mov	w1, #0x1                   	// #1
    72a0:	91004000 	add	x0, x0, #0x10
    72a4:	885ffc02 	ldaxr	w2, [x0]
    72a8:	6b1f005f 	cmp	w2, wzr
    72ac:	54000061 	b.ne	72b8 <pthread_create@@GLIBC_2.17+0xec>
    72b0:	88037c01 	stxr	w3, w1, [x0]
    72b4:	35ffff83 	cbnz	w3, 72a4 <pthread_create@@GLIBC_2.17+0xd8>
    72b8:	54001581 	b.ne	7568 <pthread_create@@GLIBC_2.17+0x39c>
    72bc:	b0000156 	adrp	x22, 30000 <_GLOBAL_OFFSET_TABLE_+0x88>
    72c0:	910962c7 	add	x7, x22, #0x258
    72c4:	f9412ec4 	ldr	x4, [x22,#600]
    72c8:	eb07009f 	cmp	x4, x7
    72cc:	54002460 	b.eq	7758 <pthread_create@@GLIBC_2.17+0x58c>
    72d0:	d2800013 	mov	x19, #0x0                   	// #0
    72d4:	14000004 	b	72e4 <pthread_create@@GLIBC_2.17+0x118>
    72d8:	f9400084 	ldr	x4, [x4]
    72dc:	eb07009f 	cmp	x4, x7
    72e0:	54000200 	b.eq	7320 <pthread_create@@GLIBC_2.17+0x154>
    72e4:	d1030085 	sub	x5, x4, #0xc0
    72e8:	b940d0a6 	ldr	w6, [x5,#208]
    72ec:	6b1f00df 	cmp	w6, wzr
    72f0:	54ffff4c 	b.gt	72d8 <pthread_create@@GLIBC_2.17+0x10c>
    72f4:	f9424ca0 	ldr	x0, [x5,#1176]
    72f8:	eb00039f 	cmp	x28, x0
    72fc:	54fffee8 	b.hi	72d8 <pthread_create@@GLIBC_2.17+0x10c>
    7300:	54004240 	b.eq	7b48 <pthread_create@@GLIBC_2.17+0x97c>
    7304:	b4001993 	cbz	x19, 7634 <pthread_create@@GLIBC_2.17+0x468>
    7308:	f9424e61 	ldr	x1, [x19,#1176]
    730c:	f9400084 	ldr	x4, [x4]
    7310:	eb01001f 	cmp	x0, x1
    7314:	9a852273 	csel	x19, x19, x5, cs
    7318:	eb07009f 	cmp	x4, x7
    731c:	54fffe41 	b.ne	72e4 <pthread_create@@GLIBC_2.17+0x118>
    7320:	b40021d3 	cbz	x19, 7758 <pthread_create@@GLIBC_2.17+0x58c>
    7324:	f9424e60 	ldr	x0, [x19,#1176]
    7328:	eb1c081f 	cmp	x0, x28, lsl #2
    732c:	54002168 	b.hi	7758 <pthread_create@@GLIBC_2.17+0x58c>
    7330:	9103027a 	add	x26, x19, #0xc0
    7334:	12800000 	mov	w0, #0xffffffff            	// #-1
    7338:	f9014a9a 	str	x26, [x20,#656]
    733c:	910962d6 	add	x22, x22, #0x258
    7340:	b9041e60 	str	w0, [x19,#1052]
    7344:	aa1603e2 	mov	x2, x22
    7348:	b2400344 	orr	x4, x26, #0x1
    734c:	910a4281 	add	x1, x20, #0x290
    7350:	d5033bbf 	dmb	ish
    7354:	f9406263 	ldr	x3, [x19,#192]
    7358:	f9406665 	ldr	x5, [x19,#200]
    735c:	91004020 	add	x0, x1, #0x10
    7360:	f9000465 	str	x5, [x3,#8]
    7364:	f9406665 	ldr	x5, [x19,#200]
    7368:	f90000a3 	str	x3, [x5]
    736c:	d5033bbf 	dmb	ish
    7370:	f9014a84 	str	x4, [x20,#656]
    7374:	d5033bbf 	dmb	ish
    7378:	f8410c43 	ldr	x3, [x2,#16]!
    737c:	f9006263 	str	x3, [x19,#192]
    7380:	f9006662 	str	x2, [x19,#200]
    7384:	f900047a 	str	x26, [x3,#8]
    7388:	d5033bbf 	dmb	ish
    738c:	f9000ada 	str	x26, [x22,#16]
    7390:	d5033bbf 	dmb	ish
    7394:	f9400422 	ldr	x2, [x1,#8]
    7398:	f9424e63 	ldr	x3, [x19,#1176]
    739c:	f9014a9f 	str	xzr, [x20,#656]
    73a0:	cb030042 	sub	x2, x2, x3
    73a4:	f9000422 	str	x2, [x1,#8]
    73a8:	52800002 	mov	w2, #0x0                   	// #0
    73ac:	885f7c01 	ldxr	w1, [x0]
    73b0:	8803fc02 	stlxr	w3, w2, [x0]
    73b4:	35ffffc3 	cbnz	w3, 73ac <pthread_create@@GLIBC_2.17+0x1e0>
    73b8:	7100043f 	cmp	w1, #0x1
    73bc:	540043ac 	b.gt	7c30 <pthread_create@@GLIBC_2.17+0xa64>
    73c0:	f9437a77 	ldr	x23, [x19,#1776]
    73c4:	d2800016 	mov	x22, #0x0                   	// #0
    73c8:	f9424e60 	ldr	x0, [x19,#1176]
    73cc:	b9010a7f 	str	wzr, [x19,#264]
    73d0:	910042f5 	add	x21, x23, #0x10
    73d4:	f9007e76 	str	x22, [x19,#248]
    73d8:	f9023276 	str	x22, [x19,#1120]
    73dc:	9e670009 	fmov	d9, x0
    73e0:	f9424a60 	ldr	x0, [x19,#1168]
    73e4:	f85f02e5 	ldr	x5, [x23,#-16]
    73e8:	eb0502df 	cmp	x22, x5
    73ec:	9e67000a 	fmov	d10, x0
    73f0:	54000182 	b.cs	7420 <pthread_create@@GLIBC_2.17+0x254>
    73f4:	394022a4 	ldrb	w4, [x21,#8]
    73f8:	910006d6 	add	x22, x22, #0x1
    73fc:	350000c4 	cbnz	w4, 7414 <pthread_create@@GLIBC_2.17+0x248>
    7400:	f94002a0 	ldr	x0, [x21]
    7404:	b100041f 	cmn	x0, #0x1
    7408:	54000060 	b.eq	7414 <pthread_create@@GLIBC_2.17+0x248>
    740c:	97fff785 	bl	5220 <free@plt>
    7410:	f85f02e5 	ldr	x5, [x23,#-16]
    7414:	eb0502df 	cmp	x22, x5
    7418:	910042b5 	add	x21, x21, #0x10
    741c:	54fffec3 	b.cc	73f4 <pthread_create@@GLIBC_2.17+0x228>
    7420:	910004a2 	add	x2, x5, #0x1
    7424:	aa1703e0 	mov	x0, x23
    7428:	d53bd043 	mrs	x3, tpidr_el0
    742c:	52800001 	mov	w1, #0x0                   	// #0
    7430:	d37cec42 	lsl	x2, x2, #4
    7434:	911bc275 	add	x21, x19, #0x6f0
    7438:	aa0303f7 	mov	x23, x3
    743c:	aa1503f6 	mov	x22, x21
    7440:	97fff714 	bl	5090 <memset@plt>
    7444:	aa1503e0 	mov	x0, x21
    7448:	97fff7ca 	bl	5370 <_dl_allocate_tls_init@plt>
    744c:	f9425261 	ldr	x1, [x19,#1184]
    7450:	eb01033f 	cmp	x25, x1
    7454:	540037e8 	b.hi	7b50 <pthread_create@@GLIBC_2.17+0x984>
    7458:	9e660120 	fmov	x0, d9
    745c:	cb190021 	sub	x1, x1, x25
    7460:	cb1c0009 	sub	x9, x0, x28
    7464:	eb09003f 	cmp	x1, x9
    7468:	54003d28 	b.hi	7c0c <pthread_create@@GLIBC_2.17+0xa40>
    746c:	f9025679 	str	x25, [x19,#1192]
    7470:	d11bc2f5 	sub	x21, x23, #0x6f0
    7474:	b9400b03 	ldr	w3, [x24,#8]
    7478:	911122a4 	add	x4, x21, #0x448
    747c:	b9410ea1 	ldr	w1, [x21,#268]
    7480:	91038262 	add	x2, x19, #0xe0
    7484:	12000065 	and	w5, w3, #0x1
    7488:	12197460 	and	w0, w3, #0xffffff9f
    748c:	6b1f00bf 	cmp	w5, wzr
    7490:	121b0421 	and	w1, w1, #0x60
    7494:	91112265 	add	x5, x19, #0x448
    7498:	2a000021 	orr	w1, w1, w0
    749c:	928003e0 	mov	x0, #0xffffffffffffffe0    	// #-32
    74a0:	b94436a6 	ldr	w6, [x21,#1076]
    74a4:	a9402488 	ldp	x8, x9, [x4]
    74a8:	f9006e62 	str	x2, [x19,#216]
    74ac:	f9007262 	str	x2, [x19,#224]
    74b0:	d11bc262 	sub	x2, x19, #0x6f0
    74b4:	f9007660 	str	x0, [x19,#232]
    74b8:	9a9f1260 	csel	x0, x19, xzr, ne
    74bc:	b9041a7f 	str	wzr, [x19,#1048]
    74c0:	f9021260 	str	x0, [x19,#1056]
    74c4:	f9007a7f 	str	xzr, [x19,#240]
    74c8:	f9021e7b 	str	x27, [x19,#1080]
    74cc:	fd02226c 	str	d12, [x19,#1088]
    74d0:	b9010e61 	str	w1, [x19,#268]
    74d4:	a90024a8 	stp	x8, x9, [x5]
    74d8:	f9422ea0 	ldr	x0, [x21,#1112]
    74dc:	f9022e60 	str	x0, [x19,#1112]
    74e0:	b94432a0 	ldr	w0, [x21,#1072]
    74e4:	b9043260 	str	w0, [x19,#1072]
    74e8:	b9043666 	str	w6, [x19,#1076]
    74ec:	37082923 	tbnz	w3, #1, 7a10 <pthread_create@@GLIBC_2.17+0x844>
    74f0:	9e660161 	fmov	x1, d11
    74f4:	395046a0 	ldrb	w0, [x21,#1041]
    74f8:	f9000033 	str	x19, [x1]
    74fc:	35002e20 	cbnz	w0, 7ac0 <pthread_create@@GLIBC_2.17+0x8f4>
    7500:	f9401703 	ldr	x3, [x24,#40]
    7504:	b4002703 	cbz	x3, 79e4 <pthread_create@@GLIBC_2.17+0x818>
    7508:	b9410aa0 	ldr	w0, [x21,#264]
    750c:	52800021 	mov	w1, #0x1                   	// #1
    7510:	b9041660 	str	w0, [x19,#1044]
    7514:	52800023 	mov	w3, #0x1                   	// #1
    7518:	39104e61 	strb	w1, [x19,#1043]
    751c:	aa1303e0 	mov	x0, x19
    7520:	aa1803e1 	mov	x1, x24
    7524:	97fffa4e 	bl	5e5c <do_clone.constprop.4>
    7528:	2a0003f5 	mov	w21, w0
    752c:	34000300 	cbz	w0, 758c <pthread_create@@GLIBC_2.17+0x3c0>
    7530:	1e260100 	fmov	w0, s8
    7534:	350003e0 	cbnz	w0, 75b0 <pthread_create@@GLIBC_2.17+0x3e4>
    7538:	910003bf 	mov	sp, x29
    753c:	2a1503e0 	mov	w0, w21
    7540:	6d4627e8 	ldp	d8, d9, [sp,#96]
    7544:	a94153f3 	ldp	x19, x20, [sp,#16]
    7548:	6d472fea 	ldp	d10, d11, [sp,#112]
    754c:	a9425bf5 	ldp	x21, x22, [sp,#32]
    7550:	6d4837ec 	ldp	d12, d13, [sp,#128]
    7554:	a94363f7 	ldp	x23, x24, [sp,#48]
    7558:	a9446bf9 	ldp	x25, x26, [sp,#64]
    755c:	a94573fb 	ldp	x27, x28, [sp,#80]
    7560:	a8cf7bfd 	ldp	x29, x30, [sp],#240
    7564:	d65f03c0 	ret
    7568:	f9004fac 	str	x12, [x29,#152]
    756c:	f90053aa 	str	x10, [x29,#160]
    7570:	f90057ab 	str	x11, [x29,#168]
    7574:	b900b3a2 	str	w2, [x29,#176]
    7578:	9400207c 	bl	f768 <__lll_lock_wait_private>
    757c:	f9404fac 	ldr	x12, [x29,#152]
    7580:	f94053aa 	ldr	x10, [x29,#160]
    7584:	f94057ab 	ldr	x11, [x29,#168]
    7588:	17ffff4d 	b	72bc <pthread_create@@GLIBC_2.17+0xf0>
    758c:	91106260 	add	x0, x19, #0x418
    7590:	885f7c01 	ldxr	w1, [x0]
    7594:	8802fc15 	stlxr	w2, w21, [x0]
    7598:	35ffffc2 	cbnz	w2, 7590 <pthread_create@@GLIBC_2.17+0x3c4>
    759c:	7100043f 	cmp	w1, #0x1
    75a0:	5400386c 	b.gt	7cac <pthread_create@@GLIBC_2.17+0xae0>
    75a4:	1e260100 	fmov	w0, s8
    75a8:	52800015 	mov	w21, #0x0                   	// #0
    75ac:	34fffc60 	cbz	w0, 7538 <pthread_create@@GLIBC_2.17+0x36c>
    75b0:	f94073a0 	ldr	x0, [x29,#224]
    75b4:	97fff71b 	bl	5220 <free@plt>
    75b8:	17ffffe0 	b	7538 <pthread_create@@GLIBC_2.17+0x36c>
    75bc:	b900b3b4 	str	w20, [x29,#176]
    75c0:	b0000174 	adrp	x20, 34000 <__GI___pthread_keys+0x3d78>
    75c4:	910a2280 	add	x0, x20, #0x288
    75c8:	52800022 	mov	w2, #0x1                   	// #1
    75cc:	885ffc01 	ldaxr	w1, [x0]
    75d0:	6b1f003f 	cmp	w1, wzr
    75d4:	54000061 	b.ne	75e0 <pthread_create@@GLIBC_2.17+0x414>
    75d8:	88037c02 	stxr	w3, w2, [x0]
    75dc:	35ffff83 	cbnz	w3, 75cc <pthread_create@@GLIBC_2.17+0x400>
    75e0:	540002e1 	b.ne	763c <pthread_create@@GLIBC_2.17+0x470>
    75e4:	b0000161 	adrp	x1, 34000 <__GI___pthread_keys+0x3d78>
    75e8:	910a2280 	add	x0, x20, #0x288
    75ec:	52800002 	mov	w2, #0x0                   	// #0
    75f0:	f941a834 	ldr	x20, [x1,#848]
    75f4:	885f7c01 	ldxr	w1, [x0]
    75f8:	8803fc02 	stlxr	w3, w2, [x0]
    75fc:	35ffffc3 	cbnz	w3, 75f4 <pthread_create@@GLIBC_2.17+0x428>
    7600:	7100043f 	cmp	w1, #0x1
    7604:	5400348c 	b.gt	7c94 <pthread_create@@GLIBC_2.17+0xac8>
    7608:	b9400b00 	ldr	w0, [x24,#8]
    760c:	361fe0e0 	tbz	w0, #3, 7228 <pthread_create@@GLIBC_2.17+0x5c>
    7610:	f9401300 	ldr	x0, [x24,#32]
    7614:	b40001a0 	cbz	x0, 7648 <pthread_create@@GLIBC_2.17+0x47c>
    7618:	b0000161 	adrp	x1, 34000 <__GI___pthread_keys+0x3d78>
    761c:	f9419033 	ldr	x19, [x1,#800]
    7620:	91200261 	add	x1, x19, #0x800
    7624:	eb00003f 	cmp	x1, x0
    7628:	54000149 	b.ls	7650 <pthread_create@@GLIBC_2.17+0x484>
    762c:	528002d5 	mov	w21, #0x16                  	// #22
    7630:	17ffffc0 	b	7530 <pthread_create@@GLIBC_2.17+0x364>
    7634:	aa0503f3 	mov	x19, x5
    7638:	17ffff28 	b	72d8 <pthread_create@@GLIBC_2.17+0x10c>
    763c:	b900b3a1 	str	w1, [x29,#176]
    7640:	9400204a 	bl	f768 <__lll_lock_wait_private>
    7644:	17ffffe8 	b	75e4 <pthread_create@@GLIBC_2.17+0x418>
    7648:	b0000160 	adrp	x0, 34000 <__GI___pthread_keys+0x3d78>
    764c:	f9419013 	ldr	x19, [x0,#800]
    7650:	f9400f00 	ldr	x0, [x24,#24]
    7654:	52800001 	mov	w1, #0x0                   	// #0
    7658:	d280de02 	mov	x2, #0x6f0                 	// #1776
    765c:	52800036 	mov	w22, #0x1                   	// #1
    7660:	cb130013 	sub	x19, x0, x19
    7664:	b0000160 	adrp	x0, 34000 <__GI___pthread_keys+0x3d78>
    7668:	d53bd059 	mrs	x25, tpidr_el0
    766c:	d11bc335 	sub	x21, x25, #0x6f0
    7670:	f9418c00 	ldr	x0, [x0,#792]
    7674:	8a200273 	bic	x19, x19, x0
    7678:	d11bc273 	sub	x19, x19, #0x6f0
    767c:	aa1303e0 	mov	x0, x19
    7680:	97fff684 	bl	5090 <memset@plt>
    7684:	91044261 	add	x1, x19, #0x110
    7688:	f9400f00 	ldr	x0, [x24,#24]
    768c:	f9018a61 	str	x1, [x19,#784]
    7690:	b0000161 	adrp	x1, 34000 <__GI___pthread_keys+0x3d78>
    7694:	b9000276 	str	w22, [x19]
    7698:	cb140000 	sub	x0, x0, x20
    769c:	f9024e74 	str	x20, [x19,#1176]
    76a0:	52800022 	mov	w2, #0x1                   	// #1
    76a4:	f941b821 	ldr	x1, [x1,#880]
    76a8:	f9024a60 	str	x0, [x19,#1168]
    76ac:	911bc260 	add	x0, x19, #0x6f0
    76b0:	39104a62 	strb	w2, [x19,#1042]
    76b4:	b9000036 	str	w22, [x1]
    76b8:	b0000161 	adrp	x1, 34000 <__GI___pthread_keys+0x3d78>
    76bc:	b9032836 	str	w22, [x1,#808]
    76c0:	b940d6a1 	ldr	w1, [x21,#212]
    76c4:	b900d661 	str	w1, [x19,#212]
    76c8:	12800001 	mov	w1, #0xffffffff            	// #-1
    76cc:	b9041e61 	str	w1, [x19,#1052]
    76d0:	97fff710 	bl	5310 <_dl_allocate_tls@plt>
    76d4:	b4002d80 	cbz	x0, 7c84 <pthread_create@@GLIBC_2.17+0xab8>
    76d8:	b0000174 	adrp	x20, 34000 <__GI___pthread_keys+0x3d78>
    76dc:	b900b3bf 	str	wzr, [x29,#176]
    76e0:	910a4280 	add	x0, x20, #0x290
    76e4:	91004000 	add	x0, x0, #0x10
    76e8:	885ffc01 	ldaxr	w1, [x0]
    76ec:	6b1f003f 	cmp	w1, wzr
    76f0:	54000061 	b.ne	76fc <pthread_create@@GLIBC_2.17+0x530>
    76f4:	88027c16 	stxr	w2, w22, [x0]
    76f8:	35ffff82 	cbnz	w2, 76e8 <pthread_create@@GLIBC_2.17+0x51c>
    76fc:	54002b81 	b.ne	7c6c <pthread_create@@GLIBC_2.17+0xaa0>
    7700:	910a4281 	add	x1, x20, #0x290
    7704:	91030262 	add	x2, x19, #0xc0
    7708:	91006020 	add	x0, x1, #0x18
    770c:	f9006660 	str	x0, [x19,#200]
    7710:	91004020 	add	x0, x1, #0x10
    7714:	f9400c23 	ldr	x3, [x1,#24]
    7718:	f9006263 	str	x3, [x19,#192]
    771c:	f9000462 	str	x2, [x3,#8]
    7720:	d5033bbf 	dmb	ish
    7724:	f9000c22 	str	x2, [x1,#24]
    7728:	52800002 	mov	w2, #0x0                   	// #0
    772c:	885f7c01 	ldxr	w1, [x0]
    7730:	8803fc02 	stlxr	w3, w2, [x0]
    7734:	35ffffc3 	cbnz	w3, 772c <pthread_create@@GLIBC_2.17+0x560>
    7738:	7100043f 	cmp	w1, #0x1
    773c:	54ffe9cd 	b.le	7474 <pthread_create@@GLIBC_2.17+0x2a8>
    7740:	d2801021 	mov	x1, #0x81                  	// #129
    7744:	d2800022 	mov	x2, #0x1                   	// #1
    7748:	d2800003 	mov	x3, #0x0                   	// #0
    774c:	d2800c48 	mov	x8, #0x62                  	// #98
    7750:	d4000001 	svc	#0x0
    7754:	17ffff48 	b	7474 <pthread_create@@GLIBC_2.17+0x2a8>
    7758:	910a4280 	add	x0, x20, #0x290
    775c:	52800002 	mov	w2, #0x0                   	// #0
    7760:	91004000 	add	x0, x0, #0x10
    7764:	885f7c01 	ldxr	w1, [x0]
    7768:	8803fc02 	stlxr	w3, w2, [x0]
    776c:	35ffffc3 	cbnz	w3, 7764 <pthread_create@@GLIBC_2.17+0x598>
    7770:	7100043f 	cmp	w1, #0x1
    7774:	54002aec 	b.gt	7cd0 <pthread_create@@GLIBC_2.17+0xb04>
    7778:	1e2601a2 	fmov	w2, s13
    777c:	d2800000 	mov	x0, #0x0                   	// #0
    7780:	52800443 	mov	w3, #0x22                  	// #34
    7784:	aa1c03e1 	mov	x1, x28
    7788:	72a00043 	movk	w3, #0x2, lsl #16
    778c:	12800004 	mov	w4, #0xffffffff            	// #-1
    7790:	aa0003e5 	mov	x5, x0
    7794:	f9004fac 	str	x12, [x29,#152]
    7798:	f90053aa 	str	x10, [x29,#160]
    779c:	f90057ab 	str	x11, [x29,#168]
    77a0:	97fff68c 	bl	51d0 <mmap@plt>
    77a4:	b100041f 	cmn	x0, #0x1
    77a8:	f94057ab 	ldr	x11, [x29,#168]
    77ac:	9e67000a 	fmov	d10, x0
    77b0:	f94053aa 	ldr	x10, [x29,#160]
    77b4:	f9404fac 	ldr	x12, [x29,#152]
    77b8:	54002fe0 	b.eq	7db4 <pthread_create@@GLIBC_2.17+0xbe8>
    77bc:	9e660143 	fmov	x3, d10
    77c0:	f9419160 	ldr	x0, [x11,#800]
    77c4:	f9418d84 	ldr	x4, [x12,#792]
    77c8:	5280003a 	mov	w26, #0x1                   	// #1
    77cc:	cb000380 	sub	x0, x28, x0
    77d0:	d53bd041 	mrs	x1, tpidr_el0
    77d4:	d11bc022 	sub	x2, x1, #0x6f0
    77d8:	f90053aa 	str	x10, [x29,#160]
    77dc:	8b000060 	add	x0, x3, x0
    77e0:	b0000163 	adrp	x3, 34000 <__GI___pthread_keys+0x3d78>
    77e4:	8a240004 	bic	x4, x0, x4
    77e8:	aa0103f7 	mov	x23, x1
    77ec:	d11bc093 	sub	x19, x4, #0x6f0
    77f0:	aa0403e0 	mov	x0, x4
    77f4:	91044265 	add	x5, x19, #0x110
    77f8:	f90057a4 	str	x4, [x29,#168]
    77fc:	b900027a 	str	w26, [x19]
    7800:	fd024a6a 	str	d10, [x19,#1168]
    7804:	f941b863 	ldr	x3, [x3,#880]
    7808:	f9024e7c 	str	x28, [x19,#1176]
    780c:	f9018a65 	str	x5, [x19,#784]
    7810:	b900007a 	str	w26, [x3]
    7814:	12800003 	mov	w3, #0xffffffff            	// #-1
    7818:	b9041e63 	str	w3, [x19,#1052]
    781c:	b940d442 	ldr	w2, [x2,#212]
    7820:	b900d662 	str	w2, [x19,#212]
    7824:	b0000162 	adrp	x2, 34000 <__GI___pthread_keys+0x3d78>
    7828:	b903285a 	str	w26, [x2,#808]
    782c:	97fff6b9 	bl	5310 <_dl_allocate_tls@plt>
    7830:	f94057a4 	ldr	x4, [x29,#168]
    7834:	f94053aa 	ldr	x10, [x29,#160]
    7838:	b4002b00 	cbz	x0, 7d98 <pthread_create@@GLIBC_2.17+0xbcc>
    783c:	910a4280 	add	x0, x20, #0x290
    7840:	b900b3bf 	str	wzr, [x29,#176]
    7844:	91004000 	add	x0, x0, #0x10
    7848:	885ffc02 	ldaxr	w2, [x0]
    784c:	6b1f005f 	cmp	w2, wzr
    7850:	54000061 	b.ne	785c <pthread_create@@GLIBC_2.17+0x690>
    7854:	88017c1a 	stxr	w1, w26, [x0]
    7858:	35ffff81 	cbnz	w1, 7848 <pthread_create@@GLIBC_2.17+0x67c>
    785c:	54001fa1 	b.ne	7c50 <pthread_create@@GLIBC_2.17+0xa84>
    7860:	910962d6 	add	x22, x22, #0x258
    7864:	9103027a 	add	x26, x19, #0xc0
    7868:	aa1603e1 	mov	x1, x22
    786c:	b2400340 	orr	x0, x26, #0x1
    7870:	f9014a80 	str	x0, [x20,#656]
    7874:	910a4280 	add	x0, x20, #0x290
    7878:	91004000 	add	x0, x0, #0x10
    787c:	d5033bbf 	dmb	ish
    7880:	f8410c22 	ldr	x2, [x1,#16]!
    7884:	f9006262 	str	x2, [x19,#192]
    7888:	f9006661 	str	x1, [x19,#200]
    788c:	f900045a 	str	x26, [x2,#8]
    7890:	52800002 	mov	w2, #0x0                   	// #0
    7894:	d5033bbf 	dmb	ish
    7898:	f9000ada 	str	x26, [x22,#16]
    789c:	d5033bbf 	dmb	ish
    78a0:	f9014a9f 	str	xzr, [x20,#656]
    78a4:	885f7c01 	ldxr	w1, [x0]
    78a8:	8803fc02 	stlxr	w3, w2, [x0]
    78ac:	35ffffc3 	cbnz	w3, 78a4 <pthread_create@@GLIBC_2.17+0x6d8>
    78b0:	7100043f 	cmp	w1, #0x1
    78b4:	540025ac 	b.gt	7d68 <pthread_create@@GLIBC_2.17+0xb9c>
    78b8:	f947ed4a 	ldr	x10, [x10,#4056]
    78bc:	aa0403f6 	mov	x22, x4
    78c0:	9e670389 	fmov	d9, x28
    78c4:	b94fa140 	ldr	w0, [x10,#4000]
    78c8:	3607dc20 	tbz	w0, #0, 744c <pthread_create@@GLIBC_2.17+0x280>
    78cc:	35ffdc15 	cbnz	w21, 744c <pthread_create@@GLIBC_2.17+0x280>
    78d0:	f9425261 	ldr	x1, [x19,#1184]
    78d4:	528000e2 	mov	w2, #0x7                   	// #7
    78d8:	f9424a60 	ldr	x0, [x19,#1168]
    78dc:	f9424e63 	ldr	x3, [x19,#1176]
    78e0:	8b010000 	add	x0, x0, x1
    78e4:	cb010061 	sub	x1, x3, x1
    78e8:	97fff6b2 	bl	53b0 <mprotect@plt>
    78ec:	340022e0 	cbz	w0, 7d48 <pthread_create@@GLIBC_2.17+0xb7c>
    78f0:	90000140 	adrp	x0, 2f000 <__FRAME_END__+0x18e30>
    78f4:	f947c400 	ldr	x0, [x0,#3976]
    78f8:	b8606af5 	ldr	w21, [x23,x0]
    78fc:	34ffda95 	cbz	w21, 744c <pthread_create@@GLIBC_2.17+0x280>
    7900:	9e660140 	fmov	x0, d10
    7904:	aa1c03e1 	mov	x1, x28
    7908:	97fff66a 	bl	52b0 <munmap@plt>
    790c:	710032bf 	cmp	w21, #0xc
    7910:	52800160 	mov	w0, #0xb                   	// #11
    7914:	1a8012b5 	csel	w21, w21, w0, ne
    7918:	17ffff06 	b	7530 <pthread_create@@GLIBC_2.17+0x364>
    791c:	b0000174 	adrp	x20, 34000 <__GI___pthread_keys+0x3d78>
    7920:	b900bba1 	str	w1, [x29,#184]
    7924:	910a2280 	add	x0, x20, #0x288
    7928:	52800022 	mov	w2, #0x1                   	// #1
    792c:	885ffc01 	ldaxr	w1, [x0]
    7930:	6b1f003f 	cmp	w1, wzr
    7934:	54000061 	b.ne	7940 <pthread_create@@GLIBC_2.17+0x774>
    7938:	88037c02 	stxr	w3, w2, [x0]
    793c:	35ffff83 	cbnz	w3, 792c <pthread_create@@GLIBC_2.17+0x760>
    7940:	54000060 	b.eq	794c <pthread_create@@GLIBC_2.17+0x780>
    7944:	b900bba1 	str	w1, [x29,#184]
    7948:	94001f88 	bl	f768 <__lll_lock_wait_private>
    794c:	b0000160 	adrp	x0, 34000 <__GI___pthread_keys+0x3d78>
    7950:	9102e3b8 	add	x24, x29, #0xb8
    7954:	910cc000 	add	x0, x0, #0x330
    7958:	a9401404 	ldp	x4, x5, [x0]
    795c:	a9410c02 	ldp	x2, x3, [x0,#16]
    7960:	f9401813 	ldr	x19, [x0,#48]
    7964:	a9420400 	ldp	x0, x1, [x0,#32]
    7968:	f90077b3 	str	x19, [x29,#232]
    796c:	a9001704 	stp	x4, x5, [x24]
    7970:	a9010f02 	stp	x2, x3, [x24,#16]
    7974:	a9020700 	stp	x0, x1, [x24,#32]
    7978:	b4001693 	cbz	x19, 7c48 <pthread_create@@GLIBC_2.17+0xa7c>
    797c:	f140227f 	cmp	x19, #0x8, lsl #12
    7980:	54001b48 	b.hi	7ce8 <pthread_create@@GLIBC_2.17+0xb1c>
    7984:	91007a60 	add	x0, x19, #0x1e
    7988:	910003e1 	mov	x1, sp
    798c:	927cec00 	and	x0, x0, #0xfffffffffffffff0
    7990:	1e2703e8 	fmov	s8, wzr
    7994:	cb20603f 	sub	sp, x1, x0
    7998:	910003e3 	mov	x3, sp
    799c:	f94073a1 	ldr	x1, [x29,#224]
    79a0:	aa0303e0 	mov	x0, x3
    79a4:	aa1303e2 	mov	x2, x19
    79a8:	97fff56e 	bl	4f60 <memcpy@plt>
    79ac:	f90073a0 	str	x0, [x29,#224]
    79b0:	910a2280 	add	x0, x20, #0x288
    79b4:	52800002 	mov	w2, #0x0                   	// #0
    79b8:	885f7c01 	ldxr	w1, [x0]
    79bc:	8803fc02 	stlxr	w3, w2, [x0]
    79c0:	35ffffc3 	cbnz	w3, 79b8 <pthread_create@@GLIBC_2.17+0x7ec>
    79c4:	7100043f 	cmp	w1, #0x1
    79c8:	54ffc22d 	b.le	720c <pthread_create@@GLIBC_2.17+0x40>
    79cc:	d2801021 	mov	x1, #0x81                  	// #129
    79d0:	d2800022 	mov	x2, #0x1                   	// #1
    79d4:	d2800003 	mov	x3, #0x0                   	// #0
    79d8:	d2800c48 	mov	x8, #0x62                  	// #98
    79dc:	d4000001 	svc	#0x0
    79e0:	17fffe0b 	b	720c <pthread_create@@GLIBC_2.17+0x40>
    79e4:	b9400b00 	ldr	w0, [x24,#8]
    79e8:	121f0001 	and	w1, w0, #0x2
    79ec:	370fd8e0 	tbnz	w0, #1, 7508 <pthread_create@@GLIBC_2.17+0x33c>
    79f0:	b9410aa4 	ldr	w4, [x21,#264]
    79f4:	aa1303e0 	mov	x0, x19
    79f8:	39104e61 	strb	w1, [x19,#1043]
    79fc:	aa1803e1 	mov	x1, x24
    7a00:	b9041664 	str	w4, [x19,#1044]
    7a04:	97fff916 	bl	5e5c <do_clone.constprop.4>
    7a08:	2a0003f5 	mov	w21, w0
    7a0c:	17fffec9 	b	7530 <pthread_create@@GLIBC_2.17+0x364>
    7a10:	721b047f 	tst	w3, #0x60
    7a14:	54ffd6e0 	b.eq	74f0 <pthread_create@@GLIBC_2.17+0x324>
    7a18:	37301303 	tbnz	w3, #6, 7c78 <pthread_create@@GLIBC_2.17+0xaac>
    7a1c:	37300121 	tbnz	w1, #6, 7a40 <pthread_create@@GLIBC_2.17+0x874>
    7a20:	d2800000 	mov	x0, #0x0                   	// #0
    7a24:	d2800f08 	mov	x8, #0x78                  	// #120
    7a28:	d4000001 	svc	#0x0
    7a2c:	b9410e61 	ldr	w1, [x19,#268]
    7a30:	b9400b03 	ldr	w3, [x24,#8]
    7a34:	321a0021 	orr	w1, w1, #0x40
    7a38:	b9043660 	str	w0, [x19,#1076]
    7a3c:	b9010e61 	str	w1, [x19,#268]
    7a40:	37281423 	tbnz	w3, #5, 7cc4 <pthread_create@@GLIBC_2.17+0xaf8>
    7a44:	37280101 	tbnz	w1, #5, 7a64 <pthread_create@@GLIBC_2.17+0x898>
    7a48:	d2800000 	mov	x0, #0x0                   	// #0
    7a4c:	9110c261 	add	x1, x19, #0x430
    7a50:	d2800f28 	mov	x8, #0x79                  	// #121
    7a54:	d4000001 	svc	#0x0
    7a58:	b9410e60 	ldr	w0, [x19,#268]
    7a5c:	321b0000 	orr	w0, w0, #0x20
    7a60:	b9010e60 	str	w0, [x19,#268]
    7a64:	b9800700 	ldrsw	x0, [x24,#4]
    7a68:	d2800fc8 	mov	x8, #0x7e                  	// #126
    7a6c:	d4000001 	svc	#0x0
    7a70:	d2800fa8 	mov	x8, #0x7d                  	// #125
    7a74:	aa0003e3 	mov	x3, x0
    7a78:	b9800700 	ldrsw	x0, [x24,#4]
    7a7c:	d4000001 	svc	#0x0
    7a80:	b9443261 	ldr	w1, [x19,#1072]
    7a84:	6b03003f 	cmp	w1, w3
    7a88:	5400006b 	b.lt	7a94 <pthread_create@@GLIBC_2.17+0x8c8>
    7a8c:	6b00003f 	cmp	w1, w0
    7a90:	54ffd30d 	b.le	74f0 <pthread_create@@GLIBC_2.17+0x324>
    7a94:	91107260 	add	x0, x19, #0x41c
    7a98:	52800002 	mov	w2, #0x0                   	// #0
    7a9c:	885ffc01 	ldaxr	w1, [x0]
    7aa0:	88037c02 	stxr	w3, w2, [x0]
    7aa4:	35ffffc3 	cbnz	w3, 7a9c <pthread_create@@GLIBC_2.17+0x8d0>
    7aa8:	3100083f 	cmn	w1, #0x2
    7aac:	54001520 	b.eq	7d50 <pthread_create@@GLIBC_2.17+0xb84>
    7ab0:	aa1303e0 	mov	x0, x19
    7ab4:	528002d5 	mov	w21, #0x16                  	// #22
    7ab8:	97fff86f 	bl	5c74 <__deallocate_stack>
    7abc:	17fffe9d 	b	7530 <pthread_create@@GLIBC_2.17+0x364>
    7ac0:	910a4294 	add	x20, x20, #0x290
    7ac4:	b9444a61 	ldr	w1, [x19,#1096]
    7ac8:	b9402a80 	ldr	w0, [x20,#40]
    7acc:	2a000020 	orr	w0, w1, w0
    7ad0:	363fd180 	tbz	w0, #7, 7500 <pthread_create@@GLIBC_2.17+0x334>
    7ad4:	52800021 	mov	w1, #0x1                   	// #1
    7ad8:	aa1303e0 	mov	x0, x19
    7adc:	39104e61 	strb	w1, [x19,#1043]
    7ae0:	52800023 	mov	w3, #0x1                   	// #1
    7ae4:	aa1803e1 	mov	x1, x24
    7ae8:	97fff8dd 	bl	5e5c <do_clone.constprop.4>
    7aec:	2a0003f5 	mov	w21, w0
    7af0:	35ffd200 	cbnz	w0, 7530 <pthread_create@@GLIBC_2.17+0x364>
    7af4:	52800100 	mov	w0, #0x8                   	// #8
    7af8:	f9022e73 	str	x19, [x19,#1112]
    7afc:	b9045260 	str	w0, [x19,#1104]
    7b00:	aa1403e3 	mov	x3, x20
    7b04:	aa0303e2 	mov	x2, x3
    7b08:	f8430c41 	ldr	x1, [x2,#48]!
    7b0c:	f9023261 	str	x1, [x19,#1120]
    7b10:	f9005ba1 	str	x1, [x29,#176]
    7b14:	c85ffc44 	ldaxr	x4, [x2]
    7b18:	eb01009f 	cmp	x4, x1
    7b1c:	54000061 	b.ne	7b28 <pthread_create@@GLIBC_2.17+0x95c>
    7b20:	c8007c53 	stxr	w0, x19, [x2]
    7b24:	35ffff80 	cbnz	w0, 7b14 <pthread_create@@GLIBC_2.17+0x948>
    7b28:	54fffee1 	b.ne	7b04 <pthread_create@@GLIBC_2.17+0x938>
    7b2c:	97fff7d6 	bl	5a84 <__GI___nptl_create_event>
    7b30:	91106260 	add	x0, x19, #0x418
    7b34:	52800002 	mov	w2, #0x0                   	// #0
    7b38:	885f7c01 	ldxr	w1, [x0]
    7b3c:	8803fc02 	stlxr	w3, w2, [x0]
    7b40:	34ffd2e3 	cbz	w3, 759c <pthread_create@@GLIBC_2.17+0x3d0>
    7b44:	17fffffd 	b	7b38 <pthread_create@@GLIBC_2.17+0x96c>
    7b48:	aa0503f3 	mov	x19, x5
    7b4c:	17fffdf5 	b	7320 <pthread_create@@GLIBC_2.17+0x154>
    7b50:	9e660140 	fmov	x0, d10
    7b54:	aa1903e1 	mov	x1, x25
    7b58:	52800002 	mov	w2, #0x0                   	// #0
    7b5c:	97fff615 	bl	53b0 <mprotect@plt>
    7b60:	34000600 	cbz	w0, 7c20 <pthread_create@@GLIBC_2.17+0xa54>
    7b64:	910a4280 	add	x0, x20, #0x290
    7b68:	b900b3bf 	str	wzr, [x29,#176]
    7b6c:	91004000 	add	x0, x0, #0x10
    7b70:	52800022 	mov	w2, #0x1                   	// #1
    7b74:	885ffc01 	ldaxr	w1, [x0]
    7b78:	6b1f003f 	cmp	w1, wzr
    7b7c:	54000061 	b.ne	7b88 <pthread_create@@GLIBC_2.17+0x9bc>
    7b80:	88037c02 	stxr	w3, w2, [x0]
    7b84:	35ffff83 	cbnz	w3, 7b74 <pthread_create@@GLIBC_2.17+0x9a8>
    7b88:	54000060 	b.eq	7b94 <pthread_create@@GLIBC_2.17+0x9c8>
    7b8c:	b900b3a1 	str	w1, [x29,#176]
    7b90:	94001ef6 	bl	f768 <__lll_lock_wait_private>
    7b94:	f9014a9a 	str	x26, [x20,#656]
    7b98:	910a4280 	add	x0, x20, #0x290
    7b9c:	91004000 	add	x0, x0, #0x10
    7ba0:	d5033bbf 	dmb	ish
    7ba4:	f9406261 	ldr	x1, [x19,#192]
    7ba8:	f9406662 	ldr	x2, [x19,#200]
    7bac:	f9000422 	str	x2, [x1,#8]
    7bb0:	f9406662 	ldr	x2, [x19,#200]
    7bb4:	f9000041 	str	x1, [x2]
    7bb8:	52800002 	mov	w2, #0x0                   	// #0
    7bbc:	d5033bbf 	dmb	ish
    7bc0:	f9014a9f 	str	xzr, [x20,#656]
    7bc4:	885f7c01 	ldxr	w1, [x0]
    7bc8:	8803fc02 	stlxr	w3, w2, [x0]
    7bcc:	35ffffc3 	cbnz	w3, 7bc4 <pthread_create@@GLIBC_2.17+0x9f8>
    7bd0:	7100043f 	cmp	w1, #0x1
    7bd4:	54000d6c 	b.gt	7d80 <pthread_create@@GLIBC_2.17+0xbb4>
    7bd8:	aa1603e0 	mov	x0, x22
    7bdc:	52800001 	mov	w1, #0x0                   	// #0
    7be0:	97fff540 	bl	50e0 <_dl_deallocate_tls@plt>
    7be4:	9e660140 	fmov	x0, d10
    7be8:	9e660121 	fmov	x1, d9
    7bec:	97fff5b1 	bl	52b0 <munmap@plt>
    7bf0:	90000140 	adrp	x0, 2f000 <__FRAME_END__+0x18e30>
    7bf4:	f947c400 	ldr	x0, [x0,#3976]
    7bf8:	b8606af5 	ldr	w21, [x23,x0]
    7bfc:	35ffe895 	cbnz	w21, 790c <pthread_create@@GLIBC_2.17+0x740>
    7c00:	d2800000 	mov	x0, #0x0                   	// #0
    7c04:	f9021c1b 	str	x27, [x0,#1080]
    7c08:	d4207d00 	brk	#0x3e8
    7c0c:	9e660140 	fmov	x0, d10
    7c10:	1e2601a2 	fmov	w2, s13
    7c14:	8b190000 	add	x0, x0, x25
    7c18:	97fff5e6 	bl	53b0 <mprotect@plt>
    7c1c:	35fffa40 	cbnz	w0, 7b64 <pthread_create@@GLIBC_2.17+0x998>
    7c20:	f9025279 	str	x25, [x19,#1184]
    7c24:	17fffe12 	b	746c <pthread_create@@GLIBC_2.17+0x2a0>
    7c28:	aa1403e0 	mov	x0, x20
    7c2c:	17fffe7b 	b	7618 <pthread_create@@GLIBC_2.17+0x44c>
    7c30:	d2801021 	mov	x1, #0x81                  	// #129
    7c34:	d2800022 	mov	x2, #0x1                   	// #1
    7c38:	d2800003 	mov	x3, #0x0                   	// #0
    7c3c:	d2800c48 	mov	x8, #0x62                  	// #98
    7c40:	d4000001 	svc	#0x0
    7c44:	17fffddf 	b	73c0 <pthread_create@@GLIBC_2.17+0x1f4>
    7c48:	1e270268 	fmov	s8, w19
    7c4c:	17ffff59 	b	79b0 <pthread_create@@GLIBC_2.17+0x7e4>
    7c50:	f90053aa 	str	x10, [x29,#160]
    7c54:	f90057a4 	str	x4, [x29,#168]
    7c58:	b900b3a2 	str	w2, [x29,#176]
    7c5c:	94001ec3 	bl	f768 <__lll_lock_wait_private>
    7c60:	f94053aa 	ldr	x10, [x29,#160]
    7c64:	f94057a4 	ldr	x4, [x29,#168]
    7c68:	17fffefe 	b	7860 <pthread_create@@GLIBC_2.17+0x694>
    7c6c:	b900b3a1 	str	w1, [x29,#176]
    7c70:	94001ebe 	bl	f768 <__lll_lock_wait_private>
    7c74:	17fffea3 	b	7700 <pthread_create@@GLIBC_2.17+0x534>
    7c78:	b9400700 	ldr	w0, [x24,#4]
    7c7c:	b9043660 	str	w0, [x19,#1076]
    7c80:	17ffff70 	b	7a40 <pthread_create@@GLIBC_2.17+0x874>
    7c84:	90000140 	adrp	x0, 2f000 <__FRAME_END__+0x18e30>
    7c88:	f947c400 	ldr	x0, [x0,#3976]
    7c8c:	b8606b35 	ldr	w21, [x25,x0]
    7c90:	17ffffdb 	b	7bfc <pthread_create@@GLIBC_2.17+0xa30>
    7c94:	d2801021 	mov	x1, #0x81                  	// #129
    7c98:	d2800022 	mov	x2, #0x1                   	// #1
    7c9c:	d2800003 	mov	x3, #0x0                   	// #0
    7ca0:	d2800c48 	mov	x8, #0x62                  	// #98
    7ca4:	d4000001 	svc	#0x0
    7ca8:	17fffe58 	b	7608 <pthread_create@@GLIBC_2.17+0x43c>
    7cac:	d2801021 	mov	x1, #0x81                  	// #129
    7cb0:	d2800022 	mov	x2, #0x1                   	// #1
    7cb4:	d2800003 	mov	x3, #0x0                   	// #0
    7cb8:	d2800c48 	mov	x8, #0x62                  	// #98
    7cbc:	d4000001 	svc	#0x0
    7cc0:	17fffe1c 	b	7530 <pthread_create@@GLIBC_2.17+0x364>
    7cc4:	b9400300 	ldr	w0, [x24]
    7cc8:	b9043260 	str	w0, [x19,#1072]
    7ccc:	17ffff66 	b	7a64 <pthread_create@@GLIBC_2.17+0x898>
    7cd0:	d2801021 	mov	x1, #0x81                  	// #129
    7cd4:	d2800022 	mov	x2, #0x1                   	// #1
    7cd8:	d2800003 	mov	x3, #0x0                   	// #0
    7cdc:	d2800c48 	mov	x8, #0x62                  	// #98
    7ce0:	d4000001 	svc	#0x0
    7ce4:	17fffea5 	b	7778 <pthread_create@@GLIBC_2.17+0x5ac>
    7ce8:	aa1303e0 	mov	x0, x19
    7cec:	97fff59d 	bl	5360 <__libc_alloca_cutoff@plt>
    7cf0:	2a0003f5 	mov	w21, w0
    7cf4:	35ffe480 	cbnz	w0, 7984 <pthread_create@@GLIBC_2.17+0x7b8>
    7cf8:	aa1303e0 	mov	x0, x19
    7cfc:	97fff4e1 	bl	5080 <malloc@plt>
    7d00:	aa0003e3 	mov	x3, x0
    7d04:	b4000080 	cbz	x0, 7d14 <pthread_create@@GLIBC_2.17+0xb48>
    7d08:	52800020 	mov	w0, #0x1                   	// #1
    7d0c:	1e270008 	fmov	s8, w0
    7d10:	17ffff23 	b	799c <pthread_create@@GLIBC_2.17+0x7d0>
    7d14:	910a2294 	add	x20, x20, #0x288
    7d18:	885f7e80 	ldxr	w0, [x20]
    7d1c:	8801fe95 	stlxr	w1, w21, [x20]
    7d20:	35ffffc1 	cbnz	w1, 7d18 <pthread_create@@GLIBC_2.17+0xb4c>
    7d24:	7100041f 	cmp	w0, #0x1
    7d28:	52800195 	mov	w21, #0xc                   	// #12
    7d2c:	54ffc06d 	b.le	7538 <pthread_create@@GLIBC_2.17+0x36c>
    7d30:	aa1403e0 	mov	x0, x20
    7d34:	d2801021 	mov	x1, #0x81                  	// #129
    7d38:	d2800022 	mov	x2, #0x1                   	// #1
    7d3c:	d2800c48 	mov	x8, #0x62                  	// #98
    7d40:	d4000001 	svc	#0x0
    7d44:	17fffdfd 	b	7538 <pthread_create@@GLIBC_2.17+0x36c>
    7d48:	9e670389 	fmov	d9, x28
    7d4c:	17fffdc0 	b	744c <pthread_create@@GLIBC_2.17+0x280>
    7d50:	d2801021 	mov	x1, #0x81                  	// #129
    7d54:	d2800022 	mov	x2, #0x1                   	// #1
    7d58:	d2800003 	mov	x3, #0x0                   	// #0
    7d5c:	d2800c48 	mov	x8, #0x62                  	// #98
    7d60:	d4000001 	svc	#0x0
    7d64:	17ffff53 	b	7ab0 <pthread_create@@GLIBC_2.17+0x8e4>
    7d68:	d2801021 	mov	x1, #0x81                  	// #129
    7d6c:	d2800022 	mov	x2, #0x1                   	// #1
    7d70:	d2800003 	mov	x3, #0x0                   	// #0
    7d74:	d2800c48 	mov	x8, #0x62                  	// #98
    7d78:	d4000001 	svc	#0x0
    7d7c:	17fffecf 	b	78b8 <pthread_create@@GLIBC_2.17+0x6ec>
    7d80:	d2801021 	mov	x1, #0x81                  	// #129
    7d84:	d2800022 	mov	x2, #0x1                   	// #1
    7d88:	d2800003 	mov	x3, #0x0                   	// #0
    7d8c:	d2800c48 	mov	x8, #0x62                  	// #98
    7d90:	d4000001 	svc	#0x0
    7d94:	17ffff91 	b	7bd8 <pthread_create@@GLIBC_2.17+0xa0c>
    7d98:	9e660140 	fmov	x0, d10
    7d9c:	aa1c03e1 	mov	x1, x28
    7da0:	97fff544 	bl	52b0 <munmap@plt>
    7da4:	90000140 	adrp	x0, 2f000 <__FRAME_END__+0x18e30>
    7da8:	f947c400 	ldr	x0, [x0,#3976]
    7dac:	b8606af5 	ldr	w21, [x23,x0]
    7db0:	17ffff93 	b	7bfc <pthread_create@@GLIBC_2.17+0xa30>
    7db4:	d53bd040 	mrs	x0, tpidr_el0
    7db8:	90000141 	adrp	x1, 2f000 <__FRAME_END__+0x18e30>
    7dbc:	f947c421 	ldr	x1, [x1,#3976]
    7dc0:	b8616815 	ldr	w21, [x0,x1]
    7dc4:	17ffff8e 	b	7bfc <pthread_create@@GLIBC_2.17+0xa30>

0000000000007dc8 <pthread_exit>:
    7dc8:	d53bd041 	mrs	x1, tpidr_el0
    7dcc:	a9be7bfd 	stp	x29, x30, [sp,#-32]!
    7dd0:	d11bc022 	sub	x2, x1, #0x6f0
    7dd4:	d117a021 	sub	x1, x1, #0x5e8
    7dd8:	910003fd 	mov	x29, sp
    7ddc:	910073a6 	add	x6, x29, #0x1c
    7de0:	91042043 	add	x3, x2, #0x108
    7de4:	f9021440 	str	x0, [x2,#1064]
    7de8:	b9400020 	ldr	w0, [x1]
    7dec:	b9001fa0 	str	w0, [x29,#28]
    7df0:	321c0004 	orr	w4, w0, #0x10
    7df4:	885ffc65 	ldaxr	w5, [x3]
    7df8:	6b0000bf 	cmp	w5, w0
    7dfc:	54000061 	b.ne	7e08 <pthread_exit+0x40>
    7e00:	88077c64 	stxr	w7, w4, [x3]
    7e04:	35ffff87 	cbnz	w7, 7df4 <pthread_exit+0x2c>
    7e08:	54000060 	b.eq	7e14 <pthread_exit+0x4c>
    7e0c:	b90000c5 	str	w5, [x6]
    7e10:	17fffff6 	b	7de8 <pthread_exit+0x20>
    7e14:	f9408040 	ldr	x0, [x2,#256]
    7e18:	94001dbb 	bl	f504 <__pthread_unwind>

0000000000007e1c <pthread_detach>:
    7e1c:	a9be7bfd 	stp	x29, x30, [sp,#-32]!
    7e20:	aa0003e1 	mov	x1, x0
    7e24:	910003fd 	mov	x29, sp
    7e28:	b940d002 	ldr	w2, [x0,#208]
    7e2c:	37f802c2 	tbnz	w2, #31, 7e84 <pthread_detach+0x68>
    7e30:	f9000fbf 	str	xzr, [x29,#24]
    7e34:	91108002 	add	x2, x0, #0x420
    7e38:	c85ffc43 	ldaxr	x3, [x2]
    7e3c:	eb1f007f 	cmp	x3, xzr
    7e40:	54000061 	b.ne	7e4c <pthread_detach+0x30>
    7e44:	c8047c41 	stxr	w4, x1, [x2]
    7e48:	35ffff84 	cbnz	w4, 7e38 <pthread_detach+0x1c>
    7e4c:	540000e1 	b.ne	7e68 <pthread_detach+0x4c>
    7e50:	b9410822 	ldr	w2, [x1,#264]
    7e54:	121c0041 	and	w1, w2, #0x10
    7e58:	36200102 	tbz	w2, #4, 7e78 <pthread_detach+0x5c>
    7e5c:	97fffbf2 	bl	6e24 <__free_tcb>
    7e60:	52800001 	mov	w1, #0x0                   	// #0
    7e64:	14000005 	b	7e78 <pthread_detach+0x5c>
    7e68:	f9421020 	ldr	x0, [x1,#1056]
    7e6c:	eb01001f 	cmp	x0, x1
    7e70:	528002c1 	mov	w1, #0x16                  	// #22
    7e74:	1a8113e1 	csel	w1, wzr, w1, ne
    7e78:	2a0103e0 	mov	w0, w1
    7e7c:	a8c27bfd 	ldp	x29, x30, [sp],#32
    7e80:	d65f03c0 	ret
    7e84:	52800061 	mov	w1, #0x3                   	// #3
    7e88:	2a0103e0 	mov	w0, w1
    7e8c:	a8c27bfd 	ldp	x29, x30, [sp],#32
    7e90:	d65f03c0 	ret

0000000000007e94 <cleanup>:
    7e94:	d10043ff 	sub	sp, sp, #0x10
    7e98:	d53bd041 	mrs	x1, tpidr_el0
    7e9c:	d11bc021 	sub	x1, x1, #0x6f0
    7ea0:	d2800002 	mov	x2, #0x0                   	// #0
    7ea4:	f90007e1 	str	x1, [sp,#8]
    7ea8:	c85ffc03 	ldaxr	x3, [x0]
    7eac:	eb01007f 	cmp	x3, x1
    7eb0:	54000061 	b.ne	7ebc <cleanup+0x28>
    7eb4:	c8047c02 	stxr	w4, x2, [x0]
    7eb8:	35ffff84 	cbnz	w4, 7ea8 <cleanup+0x14>
    7ebc:	910043ff 	add	sp, sp, #0x10
    7ec0:	d65f03c0 	ret

0000000000007ec4 <pthread_join>:
    7ec4:	a9b97bfd 	stp	x29, x30, [sp,#-112]!
    7ec8:	910003fd 	mov	x29, sp
    7ecc:	a90153f3 	stp	x19, x20, [sp,#16]
    7ed0:	aa0003f3 	mov	x19, x0
    7ed4:	b940d000 	ldr	w0, [x0,#208]
    7ed8:	a9025bf5 	stp	x21, x22, [sp,#32]
    7edc:	a90363f7 	stp	x23, x24, [sp,#48]
    7ee0:	37f80a20 	tbnz	w0, #31, 8024 <pthread_join+0x160>
    7ee4:	f9421262 	ldr	x2, [x19,#1056]
    7ee8:	528002c0 	mov	w0, #0x16                  	// #22
    7eec:	eb13005f 	cmp	x2, x19
    7ef0:	54000420 	b.eq	7f74 <pthread_join+0xb0>
    7ef4:	aa0103f7 	mov	x23, x1
    7ef8:	91108276 	add	x22, x19, #0x420
    7efc:	910143b8 	add	x24, x29, #0x50
    7f00:	90000001 	adrp	x1, 7000 <start_thread+0x174>
    7f04:	aa1803e0 	mov	x0, x24
    7f08:	913a5021 	add	x1, x1, #0xe94
    7f0c:	aa1603e2 	mov	x2, x22
    7f10:	d53bd055 	mrs	x21, tpidr_el0
    7f14:	d11bc2b5 	sub	x21, x21, #0x6f0
    7f18:	94001cba 	bl	f200 <_pthread_cleanup_push>
    7f1c:	94001dbf 	bl	f618 <__pthread_enable_asynccancel>
    7f20:	2a0003e5 	mov	w5, w0
    7f24:	eb15027f 	cmp	x19, x21
    7f28:	54000700 	b.eq	8008 <pthread_join+0x144>
    7f2c:	f94212a0 	ldr	x0, [x21,#1056]
    7f30:	eb13001f 	cmp	x0, x19
    7f34:	54000640 	b.eq	7ffc <pthread_join+0x138>
    7f38:	f90027bf 	str	xzr, [x29,#72]
    7f3c:	c85ffec0 	ldaxr	x0, [x22]
    7f40:	eb1f001f 	cmp	x0, xzr
    7f44:	54000061 	b.ne	7f50 <pthread_join+0x8c>
    7f48:	c8017ed5 	stxr	w1, x21, [x22]
    7f4c:	35ffff81 	cbnz	w1, 7f3c <pthread_join+0x78>
    7f50:	540001c0 	b.eq	7f88 <pthread_join+0xc4>
    7f54:	f90027a0 	str	x0, [x29,#72]
    7f58:	528002d4 	mov	w20, #0x16                  	// #22
    7f5c:	2a0503e0 	mov	w0, w5
    7f60:	94001dde 	bl	f6d8 <__pthread_disable_asynccancel>
    7f64:	aa1803e0 	mov	x0, x24
    7f68:	52800001 	mov	w1, #0x0                   	// #0
    7f6c:	94001cad 	bl	f220 <_pthread_cleanup_pop>
    7f70:	2a1403e0 	mov	w0, w20
    7f74:	a94153f3 	ldp	x19, x20, [sp,#16]
    7f78:	a9425bf5 	ldp	x21, x22, [sp,#32]
    7f7c:	a94363f7 	ldp	x23, x24, [sp,#48]
    7f80:	a8c77bfd 	ldp	x29, x30, [sp],#112
    7f84:	d65f03c0 	ret
    7f88:	b940d262 	ldr	w2, [x19,#208]
    7f8c:	34000142 	cbz	w2, 7fb4 <pthread_join+0xf0>
    7f90:	91034264 	add	x4, x19, #0xd0
    7f94:	d2800001 	mov	x1, #0x0                   	// #0
    7f98:	aa0403e0 	mov	x0, x4
    7f9c:	93407c42 	sxtw	x2, w2
    7fa0:	aa0103e3 	mov	x3, x1
    7fa4:	d2800c48 	mov	x8, #0x62                  	// #98
    7fa8:	d4000001 	svc	#0x0
    7fac:	b940d262 	ldr	w2, [x19,#208]
    7fb0:	35ffff22 	cbnz	w2, 7f94 <pthread_join+0xd0>
    7fb4:	2a0503e0 	mov	w0, w5
    7fb8:	94001dc8 	bl	f6d8 <__pthread_disable_asynccancel>
    7fbc:	aa1803e0 	mov	x0, x24
    7fc0:	52800001 	mov	w1, #0x0                   	// #0
    7fc4:	94001c97 	bl	f220 <_pthread_cleanup_pop>
    7fc8:	12800000 	mov	w0, #0xffffffff            	// #-1
    7fcc:	b900d260 	str	w0, [x19,#208]
    7fd0:	b4000077 	cbz	x23, 7fdc <pthread_join+0x118>
    7fd4:	f9421660 	ldr	x0, [x19,#1064]
    7fd8:	f90002e0 	str	x0, [x23]
    7fdc:	aa1303e0 	mov	x0, x19
    7fe0:	97fffb91 	bl	6e24 <__free_tcb>
    7fe4:	52800000 	mov	w0, #0x0                   	// #0
    7fe8:	a94153f3 	ldp	x19, x20, [sp,#16]
    7fec:	a9425bf5 	ldp	x21, x22, [sp,#32]
    7ff0:	a94363f7 	ldp	x23, x24, [sp,#48]
    7ff4:	a8c77bfd 	ldp	x29, x30, [sp],#112
    7ff8:	d65f03c0 	ret
    7ffc:	b9410a60 	ldr	w0, [x19,#264]
    8000:	721e0c1f 	tst	w0, #0x3c
    8004:	54fff9a1 	b.ne	7f38 <pthread_join+0x74>
    8008:	b9410aa1 	ldr	w1, [x21,#264]
    800c:	128008c0 	mov	w0, #0xffffffb9            	// #-71
    8010:	52800474 	mov	w20, #0x23                  	// #35
    8014:	0a000020 	and	w0, w1, w0
    8018:	7100201f 	cmp	w0, #0x8
    801c:	54fffa01 	b.ne	7f5c <pthread_join+0x98>
    8020:	17ffffc6 	b	7f38 <pthread_join+0x74>
    8024:	52800060 	mov	w0, #0x3                   	// #3
    8028:	a94153f3 	ldp	x19, x20, [sp,#16]
    802c:	a9425bf5 	ldp	x21, x22, [sp,#32]
    8030:	a94363f7 	ldp	x23, x24, [sp,#48]
    8034:	a8c77bfd 	ldp	x29, x30, [sp],#112
    8038:	d65f03c0 	ret

000000000000803c <pthread_tryjoin_np>:
    803c:	a9bd7bfd 	stp	x29, x30, [sp,#-48]!
    8040:	910003fd 	mov	x29, sp
    8044:	f9421002 	ldr	x2, [x0,#1056]
    8048:	f9000bf3 	str	x19, [sp,#16]
    804c:	eb00005f 	cmp	x2, x0
    8050:	54000380 	b.eq	80c0 <pthread_tryjoin_np+0x84>
    8054:	d53bd042 	mrs	x2, tpidr_el0
    8058:	d11bc042 	sub	x2, x2, #0x6f0
    805c:	eb02001f 	cmp	x0, x2
    8060:	54000160 	b.eq	808c <pthread_tryjoin_np+0x50>
    8064:	f9421043 	ldr	x3, [x2,#1056]
    8068:	eb00007f 	cmp	x3, x0
    806c:	54000100 	b.eq	808c <pthread_tryjoin_np+0x50>
    8070:	b940d013 	ldr	w19, [x0,#208]
    8074:	34000173 	cbz	w19, 80a0 <pthread_tryjoin_np+0x64>
    8078:	52800213 	mov	w19, #0x10                  	// #16
    807c:	2a1303e0 	mov	w0, w19
    8080:	f9400bf3 	ldr	x19, [sp,#16]
    8084:	a8c37bfd 	ldp	x29, x30, [sp],#48
    8088:	d65f03c0 	ret
    808c:	52800473 	mov	w19, #0x23                  	// #35
    8090:	2a1303e0 	mov	w0, w19
    8094:	f9400bf3 	ldr	x19, [sp,#16]
    8098:	a8c37bfd 	ldp	x29, x30, [sp],#48
    809c:	d65f03c0 	ret
    80a0:	f90017bf 	str	xzr, [x29,#40]
    80a4:	91108003 	add	x3, x0, #0x420
    80a8:	c85ffc64 	ldaxr	x4, [x3]
    80ac:	eb1f009f 	cmp	x4, xzr
    80b0:	54000061 	b.ne	80bc <pthread_tryjoin_np+0x80>
    80b4:	c8057c62 	stxr	w5, x2, [x3]
    80b8:	35ffff85 	cbnz	w5, 80a8 <pthread_tryjoin_np+0x6c>
    80bc:	540000c0 	b.eq	80d4 <pthread_tryjoin_np+0x98>
    80c0:	528002d3 	mov	w19, #0x16                  	// #22
    80c4:	2a1303e0 	mov	w0, w19
    80c8:	f9400bf3 	ldr	x19, [sp,#16]
    80cc:	a8c37bfd 	ldp	x29, x30, [sp],#48
    80d0:	d65f03c0 	ret
    80d4:	b4000061 	cbz	x1, 80e0 <pthread_tryjoin_np+0xa4>
    80d8:	f9421402 	ldr	x2, [x0,#1064]
    80dc:	f9000022 	str	x2, [x1]
    80e0:	97fffb51 	bl	6e24 <__free_tcb>
    80e4:	17ffffe6 	b	807c <pthread_tryjoin_np+0x40>

00000000000080e8 <cleanup>:
    80e8:	f900001f 	str	xzr, [x0]
    80ec:	d65f03c0 	ret

00000000000080f0 <pthread_timedjoin_np>:
    80f0:	a9b97bfd 	stp	x29, x30, [sp,#-112]!
    80f4:	910003fd 	mov	x29, sp
    80f8:	b940d003 	ldr	w3, [x0,#208]
    80fc:	a90153f3 	stp	x19, x20, [sp,#16]
    8100:	a9025bf5 	stp	x21, x22, [sp,#32]
    8104:	f9001bf7 	str	x23, [sp,#48]
    8108:	37f80a43 	tbnz	w3, #31, 8250 <pthread_timedjoin_np+0x160>
    810c:	f9421003 	ldr	x3, [x0,#1056]
    8110:	eb00007f 	cmp	x3, x0
    8114:	54000220 	b.eq	8158 <pthread_timedjoin_np+0x68>
    8118:	d53bd043 	mrs	x3, tpidr_el0
    811c:	d11bc063 	sub	x3, x3, #0x6f0
    8120:	eb03001f 	cmp	x0, x3
    8124:	54000640 	b.eq	81ec <pthread_timedjoin_np+0xfc>
    8128:	f9421065 	ldr	x5, [x3,#1056]
    812c:	52800464 	mov	w4, #0x23                  	// #35
    8130:	eb0000bf 	cmp	x5, x0
    8134:	54000140 	b.eq	815c <pthread_timedjoin_np+0x6c>
    8138:	f9002bbf 	str	xzr, [x29,#80]
    813c:	91108004 	add	x4, x0, #0x420
    8140:	c85ffc85 	ldaxr	x5, [x4]
    8144:	eb1f00bf 	cmp	x5, xzr
    8148:	54000061 	b.ne	8154 <pthread_timedjoin_np+0x64>
    814c:	c8067c83 	stxr	w6, x3, [x4]
    8150:	35ffff86 	cbnz	w6, 8140 <pthread_timedjoin_np+0x50>
    8154:	54000100 	b.eq	8174 <pthread_timedjoin_np+0x84>
    8158:	528002c4 	mov	w4, #0x16                  	// #22
    815c:	2a0403e0 	mov	w0, w4
    8160:	f9401bf7 	ldr	x23, [sp,#48]
    8164:	a94153f3 	ldp	x19, x20, [sp,#16]
    8168:	a9425bf5 	ldp	x21, x22, [sp,#32]
    816c:	a8c77bfd 	ldp	x29, x30, [sp],#112
    8170:	d65f03c0 	ret
    8174:	aa0103f5 	mov	x21, x1
    8178:	910143b6 	add	x22, x29, #0x50
    817c:	90000001 	adrp	x1, 8000 <pthread_join+0x13c>
    8180:	aa0003f3 	mov	x19, x0
    8184:	9103a021 	add	x1, x1, #0xe8
    8188:	aa1603e0 	mov	x0, x22
    818c:	aa0203f4 	mov	x20, x2
    8190:	aa0403e2 	mov	x2, x4
    8194:	94001c1b 	bl	f200 <_pthread_cleanup_push>
    8198:	94001d20 	bl	f618 <__pthread_enable_asynccancel>
    819c:	2a0003f7 	mov	w23, w0
    81a0:	b940d261 	ldr	w1, [x19,#208]
    81a4:	35000321 	cbnz	w1, 8208 <pthread_timedjoin_np+0x118>
    81a8:	f90027a1 	str	x1, [x29,#72]
    81ac:	94001d4b 	bl	f6d8 <__pthread_disable_asynccancel>
    81b0:	f94027a1 	ldr	x1, [x29,#72]
    81b4:	aa1603e0 	mov	x0, x22
    81b8:	94001c1a 	bl	f220 <_pthread_cleanup_pop>
    81bc:	b4000075 	cbz	x21, 81c8 <pthread_timedjoin_np+0xd8>
    81c0:	f9421660 	ldr	x0, [x19,#1064]
    81c4:	f90002a0 	str	x0, [x21]
    81c8:	aa1303e0 	mov	x0, x19
    81cc:	97fffb16 	bl	6e24 <__free_tcb>
    81d0:	f9401bf7 	ldr	x23, [sp,#48]
    81d4:	52800004 	mov	w4, #0x0                   	// #0
    81d8:	2a0403e0 	mov	w0, w4
    81dc:	a94153f3 	ldp	x19, x20, [sp,#16]
    81e0:	a9425bf5 	ldp	x21, x22, [sp,#32]
    81e4:	a8c77bfd 	ldp	x29, x30, [sp],#112
    81e8:	d65f03c0 	ret
    81ec:	52800464 	mov	w4, #0x23                  	// #35
    81f0:	f9401bf7 	ldr	x23, [sp,#48]
    81f4:	2a0403e0 	mov	w0, w4
    81f8:	a94153f3 	ldp	x19, x20, [sp,#16]
    81fc:	a9425bf5 	ldp	x21, x22, [sp,#32]
    8200:	a8c77bfd 	ldp	x29, x30, [sp],#112
    8204:	d65f03c0 	ret
    8208:	aa1403e1 	mov	x1, x20
    820c:	91034260 	add	x0, x19, #0xd0
    8210:	94001dcf 	bl	f94c <__lll_timedwait_tid>
    8214:	2a0003f4 	mov	w20, w0
    8218:	2a1703e0 	mov	w0, w23
    821c:	94001d2f 	bl	f6d8 <__pthread_disable_asynccancel>
    8220:	aa1603e0 	mov	x0, x22
    8224:	52800001 	mov	w1, #0x0                   	// #0
    8228:	94001bfe 	bl	f220 <_pthread_cleanup_pop>
    822c:	34fffc94 	cbz	w20, 81bc <pthread_timedjoin_np+0xcc>
    8230:	f902127f 	str	xzr, [x19,#1056]
    8234:	2a1403e4 	mov	w4, w20
    8238:	2a0403e0 	mov	w0, w4
    823c:	f9401bf7 	ldr	x23, [sp,#48]
    8240:	a94153f3 	ldp	x19, x20, [sp,#16]
    8244:	a9425bf5 	ldp	x21, x22, [sp,#32]
    8248:	a8c77bfd 	ldp	x29, x30, [sp],#112
    824c:	d65f03c0 	ret
    8250:	52800064 	mov	w4, #0x3                   	// #3
    8254:	f9401bf7 	ldr	x23, [sp,#48]
    8258:	2a0403e0 	mov	w0, w4
    825c:	a94153f3 	ldp	x19, x20, [sp,#16]
    8260:	a9425bf5 	ldp	x21, x22, [sp,#32]
    8264:	a8c77bfd 	ldp	x29, x30, [sp],#112
    8268:	d65f03c0 	ret

000000000000826c <pthread_self>:
    826c:	d53bd040 	mrs	x0, tpidr_el0
    8270:	d11bc000 	sub	x0, x0, #0x6f0
    8274:	d65f03c0 	ret

0000000000008278 <pthread_equal>:
    8278:	eb01001f 	cmp	x0, x1
    827c:	1a9f17e0 	cset	w0, eq
    8280:	d65f03c0 	ret

0000000000008284 <pthread_yield>:
    8284:	17fff3db 	b	51f0 <sched_yield@plt>

0000000000008288 <pthread_getconcurrency>:
    8288:	90000160 	adrp	x0, 34000 <__GI___pthread_keys+0x3d78>
    828c:	b9437800 	ldr	w0, [x0,#888]
    8290:	d65f03c0 	ret

0000000000008294 <pthread_setconcurrency>:
    8294:	2a0003e1 	mov	w1, w0
    8298:	528002c0 	mov	w0, #0x16                  	// #22
    829c:	37f80081 	tbnz	w1, #31, 82ac <pthread_setconcurrency+0x18>
    82a0:	90000162 	adrp	x2, 34000 <__GI___pthread_keys+0x3d78>
    82a4:	52800000 	mov	w0, #0x0                   	// #0
    82a8:	b9037841 	str	w1, [x2,#888]
    82ac:	d65f03c0 	ret

00000000000082b0 <pthread_getschedparam>:
    82b0:	a9bc7bfd 	stp	x29, x30, [sp,#-64]!
    82b4:	910003fd 	mov	x29, sp
    82b8:	b940d003 	ldr	w3, [x0,#208]
    82bc:	a90153f3 	stp	x19, x20, [sp,#16]
    82c0:	a9025bf5 	stp	x21, x22, [sp,#32]
    82c4:	6b1f007f 	cmp	w3, wzr
    82c8:	5400074d 	b.le	83b0 <pthread_getschedparam+0x100>
    82cc:	aa0003f3 	mov	x19, x0
    82d0:	91106014 	add	x20, x0, #0x418
    82d4:	aa0203f6 	mov	x22, x2
    82d8:	aa0103f5 	mov	x21, x1
    82dc:	b9003fbf 	str	wzr, [x29,#60]
    82e0:	52800020 	mov	w0, #0x1                   	// #1
    82e4:	885ffe81 	ldaxr	w1, [x20]
    82e8:	6b1f003f 	cmp	w1, wzr
    82ec:	54000061 	b.ne	82f8 <pthread_getschedparam+0x48>
    82f0:	88027e80 	stxr	w2, w0, [x20]
    82f4:	35ffff82 	cbnz	w2, 82e4 <pthread_getschedparam+0x34>
    82f8:	54000281 	b.ne	8348 <pthread_getschedparam+0x98>
    82fc:	b9410e60 	ldr	w0, [x19,#268]
    8300:	362802e0 	tbz	w0, #5, 835c <pthread_getschedparam+0xac>
    8304:	363003c0 	tbz	w0, #6, 837c <pthread_getschedparam+0xcc>
    8308:	b9443660 	ldr	w0, [x19,#1076]
    830c:	52800004 	mov	w4, #0x0                   	// #0
    8310:	b90002a0 	str	w0, [x21]
    8314:	b9443260 	ldr	w0, [x19,#1072]
    8318:	b90002c0 	str	w0, [x22]
    831c:	52800001 	mov	w1, #0x0                   	// #0
    8320:	885f7e80 	ldxr	w0, [x20]
    8324:	8802fe81 	stlxr	w2, w1, [x20]
    8328:	35ffffc2 	cbnz	w2, 8320 <pthread_getschedparam+0x70>
    832c:	7100041f 	cmp	w0, #0x1
    8330:	540004cc 	b.gt	83c8 <pthread_getschedparam+0x118>
    8334:	2a0403e0 	mov	w0, w4
    8338:	a94153f3 	ldp	x19, x20, [sp,#16]
    833c:	a9425bf5 	ldp	x21, x22, [sp,#32]
    8340:	a8c47bfd 	ldp	x29, x30, [sp],#64
    8344:	d65f03c0 	ret
    8348:	aa1403e0 	mov	x0, x20
    834c:	b9003fa1 	str	w1, [x29,#60]
    8350:	94001d06 	bl	f768 <__lll_lock_wait_private>
    8354:	b9410e60 	ldr	w0, [x19,#268]
    8358:	372ffd60 	tbnz	w0, #5, 8304 <pthread_getschedparam+0x54>
    835c:	b940d260 	ldr	w0, [x19,#208]
    8360:	9110c261 	add	x1, x19, #0x430
    8364:	97fff373 	bl	5130 <__sched_getparam@plt>
    8368:	340001c0 	cbz	w0, 83a0 <pthread_getschedparam+0xf0>
    836c:	b9410e60 	ldr	w0, [x19,#268]
    8370:	363003a0 	tbz	w0, #6, 83e4 <pthread_getschedparam+0x134>
    8374:	52800024 	mov	w4, #0x1                   	// #1
    8378:	17ffffe9 	b	831c <pthread_getschedparam+0x6c>
    837c:	b940d260 	ldr	w0, [x19,#208]
    8380:	97fff3ec 	bl	5330 <__sched_getscheduler@plt>
    8384:	3100041f 	cmn	w0, #0x1
    8388:	b9043660 	str	w0, [x19,#1076]
    838c:	54ffff40 	b.eq	8374 <pthread_getschedparam+0xc4>
    8390:	b9410e60 	ldr	w0, [x19,#268]
    8394:	321a0000 	orr	w0, w0, #0x40
    8398:	b9010e60 	str	w0, [x19,#268]
    839c:	17ffffdb 	b	8308 <pthread_getschedparam+0x58>
    83a0:	b9410e60 	ldr	w0, [x19,#268]
    83a4:	321b0000 	orr	w0, w0, #0x20
    83a8:	b9010e60 	str	w0, [x19,#268]
    83ac:	17ffffd6 	b	8304 <pthread_getschedparam+0x54>
    83b0:	52800064 	mov	w4, #0x3                   	// #3
    83b4:	2a0403e0 	mov	w0, w4
    83b8:	a94153f3 	ldp	x19, x20, [sp,#16]
    83bc:	a9425bf5 	ldp	x21, x22, [sp,#32]
    83c0:	a8c47bfd 	ldp	x29, x30, [sp],#64
    83c4:	d65f03c0 	ret
    83c8:	aa1403e0 	mov	x0, x20
    83cc:	d2801021 	mov	x1, #0x81                  	// #129
    83d0:	d2800022 	mov	x2, #0x1                   	// #1
    83d4:	d2800003 	mov	x3, #0x0                   	// #0
    83d8:	d2800c48 	mov	x8, #0x62                  	// #98
    83dc:	d4000001 	svc	#0x0
    83e0:	17ffffd5 	b	8334 <pthread_getschedparam+0x84>
    83e4:	b940d260 	ldr	w0, [x19,#208]
    83e8:	97fff3d2 	bl	5330 <__sched_getscheduler@plt>
    83ec:	3100041f 	cmn	w0, #0x1
    83f0:	b9043660 	str	w0, [x19,#1076]
    83f4:	54fffc00 	b.eq	8374 <pthread_getschedparam+0xc4>
    83f8:	b9410e60 	ldr	w0, [x19,#268]
    83fc:	52800024 	mov	w4, #0x1                   	// #1
    8400:	321a0000 	orr	w0, w0, #0x40
    8404:	b9010e60 	str	w0, [x19,#268]
    8408:	17ffffc5 	b	831c <pthread_getschedparam+0x6c>

000000000000840c <pthread_setschedparam>:
    840c:	a9bc7bfd 	stp	x29, x30, [sp,#-64]!
    8410:	910003fd 	mov	x29, sp
    8414:	b940d003 	ldr	w3, [x0,#208]
    8418:	a90153f3 	stp	x19, x20, [sp,#16]
    841c:	a9025bf5 	stp	x21, x22, [sp,#32]
    8420:	6b1f007f 	cmp	w3, wzr
    8424:	5400056d 	b.le	84d0 <pthread_setschedparam+0xc4>
    8428:	aa0003f3 	mov	x19, x0
    842c:	91106014 	add	x20, x0, #0x418
    8430:	aa0203f5 	mov	x21, x2
    8434:	2a0103f6 	mov	w22, w1
    8438:	b9003bbf 	str	wzr, [x29,#56]
    843c:	52800020 	mov	w0, #0x1                   	// #1
    8440:	885ffe81 	ldaxr	w1, [x20]
    8444:	6b1f003f 	cmp	w1, wzr
    8448:	54000061 	b.ne	8454 <pthread_setschedparam+0x48>
    844c:	88027e80 	stxr	w2, w0, [x20]
    8450:	35ffff82 	cbnz	w2, 8440 <pthread_setschedparam+0x34>
    8454:	54000361 	b.ne	84c0 <pthread_setschedparam+0xb4>
    8458:	f9425a60 	ldr	x0, [x19,#1200]
    845c:	aa1503e2 	mov	x2, x21
    8460:	b5000440 	cbnz	x0, 84e8 <pthread_setschedparam+0xdc>
    8464:	b940d260 	ldr	w0, [x19,#208]
    8468:	2a1603e1 	mov	w1, w22
    846c:	97fff389 	bl	5290 <__sched_setscheduler@plt>
    8470:	3100041f 	cmn	w0, #0x1
    8474:	54000480 	b.eq	8504 <pthread_setschedparam+0xf8>
    8478:	b9043676 	str	w22, [x19,#1076]
    847c:	52800004 	mov	w4, #0x0                   	// #0
    8480:	b9410e60 	ldr	w0, [x19,#268]
    8484:	b94002a1 	ldr	w1, [x21]
    8488:	321b0400 	orr	w0, w0, #0x60
    848c:	b9043261 	str	w1, [x19,#1072]
    8490:	b9010e60 	str	w0, [x19,#268]
    8494:	52800001 	mov	w1, #0x0                   	// #0
    8498:	885f7e80 	ldxr	w0, [x20]
    849c:	8802fe81 	stlxr	w2, w1, [x20]
    84a0:	35ffffc2 	cbnz	w2, 8498 <pthread_setschedparam+0x8c>
    84a4:	7100041f 	cmp	w0, #0x1
    84a8:	5400038c 	b.gt	8518 <pthread_setschedparam+0x10c>
    84ac:	2a0403e0 	mov	w0, w4
    84b0:	a94153f3 	ldp	x19, x20, [sp,#16]
    84b4:	a9425bf5 	ldp	x21, x22, [sp,#32]
    84b8:	a8c47bfd 	ldp	x29, x30, [sp],#64
    84bc:	d65f03c0 	ret
    84c0:	aa1403e0 	mov	x0, x20
    84c4:	b9003ba1 	str	w1, [x29,#56]
    84c8:	94001ca8 	bl	f768 <__lll_lock_wait_private>
    84cc:	17ffffe3 	b	8458 <pthread_setschedparam+0x4c>
    84d0:	52800064 	mov	w4, #0x3                   	// #3
    84d4:	2a0403e0 	mov	w0, w4
    84d8:	a94153f3 	ldp	x19, x20, [sp,#16]
    84dc:	a9425bf5 	ldp	x21, x22, [sp,#32]
    84e0:	a8c47bfd 	ldp	x29, x30, [sp],#64
    84e4:	d65f03c0 	ret
    84e8:	b9400000 	ldr	w0, [x0]
    84ec:	b94002a1 	ldr	w1, [x21]
    84f0:	6b01001f 	cmp	w0, w1
    84f4:	54fffb8d 	b.le	8464 <pthread_setschedparam+0x58>
    84f8:	910103a2 	add	x2, x29, #0x40
    84fc:	b81f8c40 	str	w0, [x2,#-8]!
    8500:	17ffffd9 	b	8464 <pthread_setschedparam+0x58>
    8504:	d53bd040 	mrs	x0, tpidr_el0
    8508:	f0000121 	adrp	x1, 2f000 <__FRAME_END__+0x18e30>
    850c:	f947c421 	ldr	x1, [x1,#3976]
    8510:	b8616804 	ldr	w4, [x0,x1]
    8514:	17ffffe0 	b	8494 <pthread_setschedparam+0x88>
    8518:	aa1403e0 	mov	x0, x20
    851c:	d2801021 	mov	x1, #0x81                  	// #129
    8520:	d2800022 	mov	x2, #0x1                   	// #1
    8524:	d2800003 	mov	x3, #0x0                   	// #0
    8528:	d2800c48 	mov	x8, #0x62                  	// #98
    852c:	d4000001 	svc	#0x0
    8530:	17ffffdf 	b	84ac <pthread_setschedparam+0xa0>

0000000000008534 <pthread_setschedprio>:
    8534:	a9bc7bfd 	stp	x29, x30, [sp,#-64]!
    8538:	910003fd 	mov	x29, sp
    853c:	b940d002 	ldr	w2, [x0,#208]
    8540:	a90153f3 	stp	x19, x20, [sp,#16]
    8544:	f90013f5 	str	x21, [sp,#32]
    8548:	6b1f005f 	cmp	w2, wzr
    854c:	5400052d 	b.le	85f0 <pthread_setschedprio+0xbc>
    8550:	aa0003f3 	mov	x19, x0
    8554:	91106015 	add	x21, x0, #0x418
    8558:	2a0103f4 	mov	w20, w1
    855c:	b9003ba1 	str	w1, [x29,#56]
    8560:	b9003fbf 	str	wzr, [x29,#60]
    8564:	52800020 	mov	w0, #0x1                   	// #1
    8568:	885ffea1 	ldaxr	w1, [x21]
    856c:	6b1f003f 	cmp	w1, wzr
    8570:	54000061 	b.ne	857c <pthread_setschedprio+0x48>
    8574:	88027ea0 	stxr	w2, w0, [x21]
    8578:	35ffff82 	cbnz	w2, 8568 <pthread_setschedprio+0x34>
    857c:	54000321 	b.ne	85e0 <pthread_setschedprio+0xac>
    8580:	f9425a60 	ldr	x0, [x19,#1200]
    8584:	b5000420 	cbnz	x0, 8608 <pthread_setschedprio+0xd4>
    8588:	b940d260 	ldr	w0, [x19,#208]
    858c:	9100e3a1 	add	x1, x29, #0x38
    8590:	97fff304 	bl	51a0 <sched_setparam@plt>
    8594:	3100041f 	cmn	w0, #0x1
    8598:	54000420 	b.eq	861c <pthread_setschedprio+0xe8>
    859c:	b9410e60 	ldr	w0, [x19,#268]
    85a0:	52800004 	mov	w4, #0x0                   	// #0
    85a4:	b9003bb4 	str	w20, [x29,#56]
    85a8:	321b0000 	orr	w0, w0, #0x20
    85ac:	b9043274 	str	w20, [x19,#1072]
    85b0:	b9010e60 	str	w0, [x19,#268]
    85b4:	52800001 	mov	w1, #0x0                   	// #0
    85b8:	885f7ea0 	ldxr	w0, [x21]
    85bc:	8802fea1 	stlxr	w2, w1, [x21]
    85c0:	35ffffc2 	cbnz	w2, 85b8 <pthread_setschedprio+0x84>
    85c4:	7100041f 	cmp	w0, #0x1
    85c8:	5400034c 	b.gt	8630 <pthread_setschedprio+0xfc>
    85cc:	2a0403e0 	mov	w0, w4
    85d0:	f94013f5 	ldr	x21, [sp,#32]
    85d4:	a94153f3 	ldp	x19, x20, [sp,#16]
    85d8:	a8c47bfd 	ldp	x29, x30, [sp],#64
    85dc:	d65f03c0 	ret
    85e0:	aa1503e0 	mov	x0, x21
    85e4:	b9003fa1 	str	w1, [x29,#60]
    85e8:	94001c60 	bl	f768 <__lll_lock_wait_private>
    85ec:	17ffffe5 	b	8580 <pthread_setschedprio+0x4c>
    85f0:	52800064 	mov	w4, #0x3                   	// #3
    85f4:	f94013f5 	ldr	x21, [sp,#32]
    85f8:	2a0403e0 	mov	w0, w4
    85fc:	a94153f3 	ldp	x19, x20, [sp,#16]
    8600:	a8c47bfd 	ldp	x29, x30, [sp],#64
    8604:	d65f03c0 	ret
    8608:	b9400000 	ldr	w0, [x0]
    860c:	6b00029f 	cmp	w20, w0
    8610:	54fffbca 	b.ge	8588 <pthread_setschedprio+0x54>
    8614:	b9003ba0 	str	w0, [x29,#56]
    8618:	17ffffdc 	b	8588 <pthread_setschedprio+0x54>
    861c:	d53bd040 	mrs	x0, tpidr_el0
    8620:	f0000121 	adrp	x1, 2f000 <__FRAME_END__+0x18e30>
    8624:	f947c421 	ldr	x1, [x1,#3976]
    8628:	b8616804 	ldr	w4, [x0,x1]
    862c:	17ffffe2 	b	85b4 <pthread_setschedprio+0x80>
    8630:	aa1503e0 	mov	x0, x21
    8634:	d2801021 	mov	x1, #0x81                  	// #129
    8638:	d2800022 	mov	x2, #0x1                   	// #1
    863c:	d2800003 	mov	x3, #0x0                   	// #0
    8640:	d2800c48 	mov	x8, #0x62                  	// #98
    8644:	d4000001 	svc	#0x0
    8648:	17ffffe1 	b	85cc <pthread_setschedprio+0x98>

000000000000864c <pthread_attr_init@@GLIBC_2.17>:
    864c:	a9be7bfd 	stp	x29, x30, [sp,#-32]!
    8650:	910003fd 	mov	x29, sp
    8654:	f9000bf3 	str	x19, [sp,#16]
    8658:	aa0003f3 	mov	x19, x0
    865c:	a9007c1f 	stp	xzr, xzr, [x0]
    8660:	a9017c1f 	stp	xzr, xzr, [x0,#16]
    8664:	a9027c1f 	stp	xzr, xzr, [x0,#32]
    8668:	a9037c1f 	stp	xzr, xzr, [x0,#48]
    866c:	97fff265 	bl	5000 <__getpagesize@plt>
    8670:	93407c01 	sxtw	x1, w0
    8674:	f9000a61 	str	x1, [x19,#16]
    8678:	52800000 	mov	w0, #0x0                   	// #0
    867c:	f9400bf3 	ldr	x19, [sp,#16]
    8680:	a8c27bfd 	ldp	x29, x30, [sp],#32
    8684:	d65f03c0 	ret

0000000000008688 <pthread_attr_destroy>:
    8688:	a9bf7bfd 	stp	x29, x30, [sp,#-16]!
    868c:	910003fd 	mov	x29, sp
    8690:	f9401400 	ldr	x0, [x0,#40]
    8694:	97fff2e3 	bl	5220 <free@plt>
    8698:	52800000 	mov	w0, #0x0                   	// #0
    869c:	a8c17bfd 	ldp	x29, x30, [sp],#16
    86a0:	d65f03c0 	ret

00000000000086a4 <pthread_attr_getdetachstate>:
    86a4:	b9400802 	ldr	w2, [x0,#8]
    86a8:	52800000 	mov	w0, #0x0                   	// #0
    86ac:	12000042 	and	w2, w2, #0x1
    86b0:	b9000022 	str	w2, [x1]
    86b4:	d65f03c0 	ret

00000000000086b8 <pthread_attr_setdetachstate>:
    86b8:	7100043f 	cmp	w1, #0x1
    86bc:	540000e0 	b.eq	86d8 <pthread_attr_setdetachstate+0x20>
    86c0:	35000181 	cbnz	w1, 86f0 <pthread_attr_setdetachstate+0x38>
    86c4:	b9400802 	ldr	w2, [x0,#8]
    86c8:	121f7842 	and	w2, w2, #0xfffffffe
    86cc:	b9000802 	str	w2, [x0,#8]
    86d0:	2a0103e0 	mov	w0, w1
    86d4:	d65f03c0 	ret
    86d8:	b9400802 	ldr	w2, [x0,#8]
    86dc:	52800001 	mov	w1, #0x0                   	// #0
    86e0:	32000042 	orr	w2, w2, #0x1
    86e4:	b9000802 	str	w2, [x0,#8]
    86e8:	2a0103e0 	mov	w0, w1
    86ec:	d65f03c0 	ret
    86f0:	528002c1 	mov	w1, #0x16                  	// #22
    86f4:	17fffff7 	b	86d0 <pthread_attr_setdetachstate+0x18>

00000000000086f8 <pthread_attr_getguardsize>:
    86f8:	f9400802 	ldr	x2, [x0,#16]
    86fc:	52800000 	mov	w0, #0x0                   	// #0
    8700:	f9000022 	str	x2, [x1]
    8704:	d65f03c0 	ret

0000000000008708 <pthread_attr_setguardsize>:
    8708:	f9000801 	str	x1, [x0,#16]
    870c:	52800000 	mov	w0, #0x0                   	// #0
    8710:	d65f03c0 	ret

0000000000008714 <pthread_attr_getschedparam>:
    8714:	b9400002 	ldr	w2, [x0]
    8718:	52800000 	mov	w0, #0x0                   	// #0
    871c:	b9000022 	str	w2, [x1]
    8720:	d65f03c0 	ret

0000000000008724 <pthread_attr_setschedparam>:
    8724:	a9bc7bfd 	stp	x29, x30, [sp,#-64]!
    8728:	910003fd 	mov	x29, sp
    872c:	a90153f3 	stp	x19, x20, [sp,#16]
    8730:	b9400413 	ldr	w19, [x0,#4]
    8734:	a9025bf5 	stp	x21, x22, [sp,#32]
    8738:	aa0003f5 	mov	x21, x0
    873c:	2a1303e0 	mov	w0, w19
    8740:	b9400036 	ldr	w22, [x1]
    8744:	f9001fa1 	str	x1, [x29,#56]
    8748:	97fff28e 	bl	5180 <__sched_get_priority_min@plt>
    874c:	2a0003f4 	mov	w20, w0
    8750:	2a1303e0 	mov	w0, w19
    8754:	97fff2ff 	bl	5350 <__sched_get_priority_max@plt>
    8758:	37f80074 	tbnz	w20, #31, 8764 <pthread_attr_setschedparam+0x40>
    875c:	f9401fa1 	ldr	x1, [x29,#56]
    8760:	36f800c0 	tbz	w0, #31, 8778 <pthread_attr_setschedparam+0x54>
    8764:	528002c0 	mov	w0, #0x16                  	// #22
    8768:	a94153f3 	ldp	x19, x20, [sp,#16]
    876c:	a9425bf5 	ldp	x21, x22, [sp,#32]
    8770:	a8c47bfd 	ldp	x29, x30, [sp],#64
    8774:	d65f03c0 	ret
    8778:	6b1402df 	cmp	w22, w20
    877c:	54ffff4b 	b.lt	8764 <pthread_attr_setschedparam+0x40>
    8780:	6b0002df 	cmp	w22, w0
    8784:	54ffff0c 	b.gt	8764 <pthread_attr_setschedparam+0x40>
    8788:	b9400aa2 	ldr	w2, [x21,#8]
    878c:	52800000 	mov	w0, #0x0                   	// #0
    8790:	b9400021 	ldr	w1, [x1]
    8794:	b90002a1 	str	w1, [x21]
    8798:	321b0042 	orr	w2, w2, #0x20
    879c:	b9000aa2 	str	w2, [x21,#8]
    87a0:	a94153f3 	ldp	x19, x20, [sp,#16]
    87a4:	a9425bf5 	ldp	x21, x22, [sp,#32]
    87a8:	a8c47bfd 	ldp	x29, x30, [sp],#64
    87ac:	d65f03c0 	ret

00000000000087b0 <pthread_attr_getschedpolicy>:
    87b0:	b9400402 	ldr	w2, [x0,#4]
    87b4:	52800000 	mov	w0, #0x0                   	// #0
    87b8:	b9000022 	str	w2, [x1]
    87bc:	d65f03c0 	ret

00000000000087c0 <pthread_attr_setschedpolicy>:
    87c0:	7100083f 	cmp	w1, #0x2
    87c4:	528002c2 	mov	w2, #0x16                  	// #22
    87c8:	540000c8 	b.hi	87e0 <pthread_attr_setschedpolicy+0x20>
    87cc:	b9400803 	ldr	w3, [x0,#8]
    87d0:	52800002 	mov	w2, #0x0                   	// #0
    87d4:	b9000401 	str	w1, [x0,#4]
    87d8:	321a0063 	orr	w3, w3, #0x40
    87dc:	b9000803 	str	w3, [x0,#8]
    87e0:	2a0203e0 	mov	w0, w2
    87e4:	d65f03c0 	ret

00000000000087e8 <pthread_attr_getinheritsched>:
    87e8:	b9400802 	ldr	w2, [x0,#8]
    87ec:	52800000 	mov	w0, #0x0                   	// #0
    87f0:	d3410442 	ubfx	x2, x2, #1, #1
    87f4:	b9000022 	str	w2, [x1]
    87f8:	d65f03c0 	ret

00000000000087fc <pthread_attr_setinheritsched>:
    87fc:	7100043f 	cmp	w1, #0x1
    8800:	aa0003e2 	mov	x2, x0
    8804:	528002c0 	mov	w0, #0x16                  	// #22
    8808:	54000049 	b.ls	8810 <pthread_attr_setinheritsched+0x14>
    880c:	d65f03c0 	ret
    8810:	350000c1 	cbnz	w1, 8828 <pthread_attr_setinheritsched+0x2c>
    8814:	b9400843 	ldr	w3, [x2,#8]
    8818:	2a0103e0 	mov	w0, w1
    881c:	121e7863 	and	w3, w3, #0xfffffffd
    8820:	b9000843 	str	w3, [x2,#8]
    8824:	d65f03c0 	ret
    8828:	b9400841 	ldr	w1, [x2,#8]
    882c:	52800000 	mov	w0, #0x0                   	// #0
    8830:	321f0021 	orr	w1, w1, #0x2
    8834:	b9000841 	str	w1, [x2,#8]
    8838:	d65f03c0 	ret

000000000000883c <pthread_attr_getscope>:
    883c:	b9400802 	ldr	w2, [x0,#8]
    8840:	52800000 	mov	w0, #0x0                   	// #0
    8844:	d3420842 	ubfx	x2, x2, #2, #1
    8848:	b9000022 	str	w2, [x1]
    884c:	d65f03c0 	ret

0000000000008850 <pthread_attr_setscope>:
    8850:	340000e1 	cbz	w1, 886c <pthread_attr_setscope+0x1c>
    8854:	7100043f 	cmp	w1, #0x1
    8858:	52800be0 	mov	w0, #0x5f                  	// #95
    885c:	528002c1 	mov	w1, #0x16                  	// #22
    8860:	1a810001 	csel	w1, w0, w1, eq
    8864:	2a0103e0 	mov	w0, w1
    8868:	d65f03c0 	ret
    886c:	b9400802 	ldr	w2, [x0,#8]
    8870:	121d7842 	and	w2, w2, #0xfffffffb
    8874:	b9000802 	str	w2, [x0,#8]
    8878:	2a0103e0 	mov	w0, w1
    887c:	d65f03c0 	ret

0000000000008880 <pthread_attr_getstackaddr>:
    8880:	f9400c02 	ldr	x2, [x0,#24]
    8884:	52800000 	mov	w0, #0x0                   	// #0
    8888:	f9000022 	str	x2, [x1]
    888c:	d65f03c0 	ret

0000000000008890 <pthread_attr_setstackaddr>:
    8890:	aa0003e2 	mov	x2, x0
    8894:	52800000 	mov	w0, #0x0                   	// #0
    8898:	b9400843 	ldr	w3, [x2,#8]
    889c:	f9000c41 	str	x1, [x2,#24]
    88a0:	321d0063 	orr	w3, w3, #0x8
    88a4:	b9000843 	str	w3, [x2,#8]
    88a8:	d65f03c0 	ret

00000000000088ac <pthread_attr_getstacksize>:
    88ac:	a9bd7bfd 	stp	x29, x30, [sp,#-48]!
    88b0:	910003fd 	mov	x29, sp
    88b4:	f9401004 	ldr	x4, [x0,#32]
    88b8:	a90153f3 	stp	x19, x20, [sp,#16]
    88bc:	aa0103f4 	mov	x20, x1
    88c0:	b40000c4 	cbz	x4, 88d8 <pthread_attr_getstacksize+0x2c>
    88c4:	f9000284 	str	x4, [x20]
    88c8:	52800000 	mov	w0, #0x0                   	// #0
    88cc:	a94153f3 	ldp	x19, x20, [sp,#16]
    88d0:	a8c37bfd 	ldp	x29, x30, [sp],#48
    88d4:	d65f03c0 	ret
    88d8:	90000173 	adrp	x19, 34000 <__GI___pthread_keys+0x3d78>
    88dc:	b9002fa4 	str	w4, [x29,#44]
    88e0:	910a2260 	add	x0, x19, #0x288
    88e4:	52800021 	mov	w1, #0x1                   	// #1
    88e8:	885ffc02 	ldaxr	w2, [x0]
    88ec:	6b1f005f 	cmp	w2, wzr
    88f0:	54000061 	b.ne	88fc <pthread_attr_getstacksize+0x50>
    88f4:	88037c01 	stxr	w3, w1, [x0]
    88f8:	35ffff83 	cbnz	w3, 88e8 <pthread_attr_getstacksize+0x3c>
    88fc:	54000201 	b.ne	893c <pthread_attr_getstacksize+0x90>
    8900:	90000161 	adrp	x1, 34000 <__GI___pthread_keys+0x3d78>
    8904:	910a2260 	add	x0, x19, #0x288
    8908:	52800002 	mov	w2, #0x0                   	// #0
    890c:	f941a824 	ldr	x4, [x1,#848]
    8910:	885f7c01 	ldxr	w1, [x0]
    8914:	8803fc02 	stlxr	w3, w2, [x0]
    8918:	35ffffc3 	cbnz	w3, 8910 <pthread_attr_getstacksize+0x64>
    891c:	7100043f 	cmp	w1, #0x1
    8920:	54fffd2d 	b.le	88c4 <pthread_attr_getstacksize+0x18>
    8924:	d2801021 	mov	x1, #0x81                  	// #129
    8928:	d2800022 	mov	x2, #0x1                   	// #1
    892c:	d2800003 	mov	x3, #0x0                   	// #0
    8930:	d2800c48 	mov	x8, #0x62                  	// #98
    8934:	d4000001 	svc	#0x0
    8938:	17ffffe3 	b	88c4 <pthread_attr_getstacksize+0x18>
    893c:	b9002fa2 	str	w2, [x29,#44]
    8940:	94001b8a 	bl	f768 <__lll_lock_wait_private>
    8944:	17ffffef 	b	8900 <pthread_attr_getstacksize+0x54>

0000000000008948 <pthread_attr_setstacksize@@GLIBC_2.17>:
    8948:	b24043e2 	mov	x2, #0x1ffff               	// #131071
    894c:	eb02003f 	cmp	x1, x2
    8950:	54000068 	b.hi	895c <pthread_attr_setstacksize@@GLIBC_2.17+0x14>
    8954:	528002c0 	mov	w0, #0x16                  	// #22
    8958:	d65f03c0 	ret
    895c:	f9001001 	str	x1, [x0,#32]
    8960:	52800000 	mov	w0, #0x0                   	// #0
    8964:	d65f03c0 	ret

0000000000008968 <pthread_attr_getstack>:
    8968:	aa0003e3 	mov	x3, x0
    896c:	52800000 	mov	w0, #0x0                   	// #0
    8970:	f9401064 	ldr	x4, [x3,#32]
    8974:	f9400c63 	ldr	x3, [x3,#24]
    8978:	cb040063 	sub	x3, x3, x4
    897c:	f9000023 	str	x3, [x1]
    8980:	f9000044 	str	x4, [x2]
    8984:	d65f03c0 	ret

0000000000008988 <pthread_attr_setstack@@GLIBC_2.17>:
    8988:	b24043e3 	mov	x3, #0x1ffff               	// #131071
    898c:	eb03005f 	cmp	x2, x3
    8990:	54000088 	b.hi	89a0 <pthread_attr_setstack@@GLIBC_2.17+0x18>
    8994:	528002c2 	mov	w2, #0x16                  	// #22
    8998:	2a0203e0 	mov	w0, w2
    899c:	d65f03c0 	ret
    89a0:	b9400803 	ldr	w3, [x0,#8]
    89a4:	8b020021 	add	x1, x1, x2
    89a8:	f9001002 	str	x2, [x0,#32]
    89ac:	52800002 	mov	w2, #0x0                   	// #0
    89b0:	321d0063 	orr	w3, w3, #0x8
    89b4:	f9000c01 	str	x1, [x0,#24]
    89b8:	b9000803 	str	w3, [x0,#8]
    89bc:	2a0203e0 	mov	w0, w2
    89c0:	d65f03c0 	ret

00000000000089c4 <pthread_getattr_np>:
    89c4:	a9b57bfd 	stp	x29, x30, [sp,#-176]!
    89c8:	910003fd 	mov	x29, sp
    89cc:	6d0627e8 	stp	d8, d9, [sp,#96]
    89d0:	a9025bf5 	stp	x21, x22, [sp,#32]
    89d4:	a90363f7 	stp	x23, x24, [sp,#48]
    89d8:	a9046bf9 	stp	x25, x26, [sp,#64]
    89dc:	aa0003f5 	mov	x21, x0
    89e0:	91106019 	add	x25, x0, #0x418
    89e4:	a90153f3 	stp	x19, x20, [sp,#16]
    89e8:	a90573fb 	stp	x27, x28, [sp,#80]
    89ec:	b900a3bf 	str	wzr, [x29,#160]
    89f0:	aa0103f7 	mov	x23, x1
    89f4:	52800020 	mov	w0, #0x1                   	// #1
    89f8:	fd003bea 	str	d10, [sp,#112]
    89fc:	885fff21 	ldaxr	w1, [x25]
    8a00:	6b1f003f 	cmp	w1, wzr
    8a04:	54000061 	b.ne	8a10 <pthread_getattr_np+0x4c>
    8a08:	88027f20 	stxr	w2, w0, [x25]
    8a0c:	35ffff82 	cbnz	w2, 89fc <pthread_getattr_np+0x38>
    8a10:	54000741 	b.ne	8af8 <pthread_getattr_np+0x134>
    8a14:	b94432a0 	ldr	w0, [x21,#1072]
    8a18:	b90002e0 	str	w0, [x23]
    8a1c:	f94212a2 	ldr	x2, [x21,#1056]
    8a20:	b94436a1 	ldr	w1, [x21,#1076]
    8a24:	b9410ea0 	ldr	w0, [x21,#268]
    8a28:	eb15005f 	cmp	x2, x21
    8a2c:	b90006e1 	str	w1, [x23,#4]
    8a30:	b9000ae0 	str	w0, [x23,#8]
    8a34:	54000740 	b.eq	8b1c <pthread_getattr_np+0x158>
    8a38:	f94256a1 	ldr	x1, [x21,#1192]
    8a3c:	f9424ab3 	ldr	x19, [x21,#1168]
    8a40:	f9000ae1 	str	x1, [x23,#16]
    8a44:	b4000793 	cbz	x19, 8b34 <pthread_getattr_np+0x170>
    8a48:	f9424ea1 	ldr	x1, [x21,#1176]
    8a4c:	321d0000 	orr	w0, w0, #0x8
    8a50:	f90012e1 	str	x1, [x23,#32]
    8a54:	b9000ae0 	str	w0, [x23,#8]
    8a58:	8b010261 	add	x1, x19, x1
    8a5c:	f9000ee1 	str	x1, [x23,#24]
    8a60:	d2800016 	mov	x22, #0x0                   	// #0
    8a64:	d2800213 	mov	x19, #0x10                  	// #16
    8a68:	b2404ff8 	mov	x24, #0xfffff               	// #1048575
    8a6c:	14000007 	b	8a88 <pthread_getattr_np+0xc4>
    8a70:	9400227e 	bl	11468 <pthread_getaffinity_np@@GLIBC_2.17>
    8a74:	7100581f 	cmp	w0, #0x16
    8a78:	aa1403f6 	mov	x22, x20
    8a7c:	54000461 	b.ne	8b08 <pthread_getattr_np+0x144>
    8a80:	eb18027f 	cmp	x19, x24
    8a84:	54000428 	b.hi	8b08 <pthread_getattr_np+0x144>
    8a88:	d37ffa73 	lsl	x19, x19, #1
    8a8c:	aa1603e0 	mov	x0, x22
    8a90:	aa1303e1 	mov	x1, x19
    8a94:	97fff19f 	bl	5110 <realloc@plt>
    8a98:	aa0003f4 	mov	x20, x0
    8a9c:	aa1303e1 	mov	x1, x19
    8aa0:	aa1503e0 	mov	x0, x21
    8aa4:	aa1403e2 	mov	x2, x20
    8aa8:	b5fffe54 	cbnz	x20, 8a70 <pthread_getattr_np+0xac>
    8aac:	aa1603e0 	mov	x0, x22
    8ab0:	52800196 	mov	w22, #0xc                   	// #12
    8ab4:	97fff1db 	bl	5220 <free@plt>
    8ab8:	52800001 	mov	w1, #0x0                   	// #0
    8abc:	885f7f20 	ldxr	w0, [x25]
    8ac0:	8802ff21 	stlxr	w2, w1, [x25]
    8ac4:	35ffffc2 	cbnz	w2, 8abc <pthread_getattr_np+0xf8>
    8ac8:	7100041f 	cmp	w0, #0x1
    8acc:	5400096c 	b.gt	8bf8 <pthread_getattr_np+0x234>
    8ad0:	2a1603e0 	mov	w0, w22
    8ad4:	6d4627e8 	ldp	d8, d9, [sp,#96]
    8ad8:	a94153f3 	ldp	x19, x20, [sp,#16]
    8adc:	a9425bf5 	ldp	x21, x22, [sp,#32]
    8ae0:	a94363f7 	ldp	x23, x24, [sp,#48]
    8ae4:	a9446bf9 	ldp	x25, x26, [sp,#64]
    8ae8:	a94573fb 	ldp	x27, x28, [sp,#80]
    8aec:	fd403bea 	ldr	d10, [sp,#112]
    8af0:	a8cb7bfd 	ldp	x29, x30, [sp],#176
    8af4:	d65f03c0 	ret
    8af8:	aa1903e0 	mov	x0, x25
    8afc:	b900a3a1 	str	w1, [x29,#160]
    8b00:	94001b1a 	bl	f768 <__lll_lock_wait_private>
    8b04:	17ffffc4 	b	8a14 <pthread_getattr_np+0x50>
    8b08:	2a0003f6 	mov	w22, w0
    8b0c:	35000f40 	cbnz	w0, 8cf4 <pthread_getattr_np+0x330>
    8b10:	f90016f4 	str	x20, [x23,#40]
    8b14:	f9001af3 	str	x19, [x23,#48]
    8b18:	17ffffe8 	b	8ab8 <pthread_getattr_np+0xf4>
    8b1c:	f94256a1 	ldr	x1, [x21,#1192]
    8b20:	32000000 	orr	w0, w0, #0x1
    8b24:	f9424ab3 	ldr	x19, [x21,#1168]
    8b28:	b9000ae0 	str	w0, [x23,#8]
    8b2c:	f9000ae1 	str	x1, [x23,#16]
    8b30:	b5fff8d3 	cbnz	x19, 8a48 <pthread_getattr_np+0x84>
    8b34:	d0000040 	adrp	x0, 12000 <__pthread_current_priority+0xa8>
    8b38:	d0000041 	adrp	x1, 12000 <__pthread_current_priority+0xa8>
    8b3c:	912e6000 	add	x0, x0, #0xb98
    8b40:	912ea021 	add	x1, x1, #0xba8
    8b44:	97fff14b 	bl	5070 <fopen@plt>
    8b48:	aa0003f4 	mov	x20, x0
    8b4c:	b4000a20 	cbz	x0, 8c90 <pthread_getattr_np+0x2cc>
    8b50:	52800060 	mov	w0, #0x3                   	// #3
    8b54:	910283a1 	add	x1, x29, #0xa0
    8b58:	97fff1da 	bl	52c0 <getrlimit@plt>
    8b5c:	35000740 	cbnz	w0, 8c44 <pthread_getattr_np+0x280>
    8b60:	f0000120 	adrp	x0, 2f000 <__FRAME_END__+0x18e30>
    8b64:	b9400284 	ldr	w4, [x20]
    8b68:	9e670268 	fmov	d8, x19
    8b6c:	d0000058 	adrp	x24, 12000 <__pthread_current_priority+0xa8>
    8b70:	32110084 	orr	w4, w4, #0x8000
    8b74:	910203bb 	add	x27, x29, #0x80
    8b78:	f947e001 	ldr	x1, [x0,#4032]
    8b7c:	f0000120 	adrp	x0, 2f000 <__FRAME_END__+0x18e30>
    8b80:	910223ba 	add	x26, x29, #0x88
    8b84:	912ec318 	add	x24, x24, #0xbb0
    8b88:	910243b6 	add	x22, x29, #0x90
    8b8c:	910263bc 	add	x28, x29, #0x98
    8b90:	f947d400 	ldr	x0, [x0,#4008]
    8b94:	f9400021 	ldr	x1, [x1]
    8b98:	b9000284 	str	w4, [x20]
    8b9c:	f9400c00 	ldr	x0, [x0,#24]
    8ba0:	9e67002a 	fmov	d10, x1
    8ba4:	f90043b3 	str	x19, [x29,#128]
    8ba8:	f90047b3 	str	x19, [x29,#136]
    8bac:	9e670009 	fmov	d9, x0
    8bb0:	aa1a03e1 	mov	x1, x26
    8bb4:	aa1403e3 	mov	x3, x20
    8bb8:	aa1b03e0 	mov	x0, x27
    8bbc:	52800142 	mov	w2, #0xa                   	// #10
    8bc0:	121c0093 	and	w19, w4, #0x10
    8bc4:	372005e4 	tbnz	w4, #4, 8c80 <pthread_getattr_np+0x2bc>
    8bc8:	97fff1fe 	bl	53c0 <__getdelim@plt>
    8bcc:	eb1f001f 	cmp	x0, xzr
    8bd0:	aa1803e1 	mov	x1, x24
    8bd4:	aa1603e2 	mov	x2, x22
    8bd8:	aa1c03e3 	mov	x3, x28
    8bdc:	5400052d 	b.le	8c80 <pthread_getattr_np+0x2bc>
    8be0:	f94043a0 	ldr	x0, [x29,#128]
    8be4:	97fff13b 	bl	50d0 <sscanf@plt>
    8be8:	7100081f 	cmp	w0, #0x2
    8bec:	54000140 	b.eq	8c14 <pthread_getattr_np+0x250>
    8bf0:	b9400284 	ldr	w4, [x20]
    8bf4:	17ffffef 	b	8bb0 <pthread_getattr_np+0x1ec>
    8bf8:	aa1903e0 	mov	x0, x25
    8bfc:	d2801021 	mov	x1, #0x81                  	// #129
    8c00:	d2800022 	mov	x2, #0x1                   	// #1
    8c04:	d2800003 	mov	x3, #0x0                   	// #0
    8c08:	d2800c48 	mov	x8, #0x62                  	// #98
    8c0c:	d4000001 	svc	#0x0
    8c10:	17ffffb0 	b	8ad0 <pthread_getattr_np+0x10c>
    8c14:	f0000120 	adrp	x0, 2f000 <__FRAME_END__+0x18e30>
    8c18:	f9404ba1 	ldr	x1, [x29,#144]
    8c1c:	f947e000 	ldr	x0, [x0,#4032]
    8c20:	f9400000 	ldr	x0, [x0]
    8c24:	eb01001f 	cmp	x0, x1
    8c28:	54000243 	b.cc	8c70 <pthread_getattr_np+0x2ac>
    8c2c:	f9404fa1 	ldr	x1, [x29,#152]
    8c30:	eb01001f 	cmp	x0, x1
    8c34:	54000383 	b.cc	8ca4 <pthread_getattr_np+0x2e0>
    8c38:	9e670028 	fmov	d8, x1
    8c3c:	b9400284 	ldr	w4, [x20]
    8c40:	17ffffdc 	b	8bb0 <pthread_getattr_np+0x1ec>
    8c44:	d53bd040 	mrs	x0, tpidr_el0
    8c48:	f0000121 	adrp	x1, 2f000 <__FRAME_END__+0x18e30>
    8c4c:	f947c421 	ldr	x1, [x1,#3976]
    8c50:	b8616816 	ldr	w22, [x0,x1]
    8c54:	aa1403e0 	mov	x0, x20
    8c58:	97fff0fe 	bl	5050 <fclose@plt>
    8c5c:	b9400ae0 	ldr	w0, [x23,#8]
    8c60:	321d0000 	orr	w0, w0, #0x8
    8c64:	b9000ae0 	str	w0, [x23,#8]
    8c68:	35fff296 	cbnz	w22, 8ab8 <pthread_getattr_np+0xf4>
    8c6c:	17ffff7d 	b	8a60 <pthread_getattr_np+0x9c>
    8c70:	f9404fa0 	ldr	x0, [x29,#152]
    8c74:	b9400284 	ldr	w4, [x20]
    8c78:	9e670008 	fmov	d8, x0
    8c7c:	17ffffcd 	b	8bb0 <pthread_getattr_np+0x1ec>
    8c80:	52800056 	mov	w22, #0x2                   	// #2
    8c84:	f94043a0 	ldr	x0, [x29,#128]
    8c88:	97fff166 	bl	5220 <free@plt>
    8c8c:	17fffff2 	b	8c54 <pthread_getattr_np+0x290>
    8c90:	d53bd040 	mrs	x0, tpidr_el0
    8c94:	f0000121 	adrp	x1, 2f000 <__FRAME_END__+0x18e30>
    8c98:	f947c421 	ldr	x1, [x1,#3976]
    8c9c:	b8616816 	ldr	w22, [x0,x1]
    8ca0:	17ffffef 	b	8c5c <pthread_getattr_np+0x298>
    8ca4:	9e660123 	fmov	x3, d9
    8ca8:	9e660140 	fmov	x0, d10
    8cac:	9e660104 	fmov	x4, d8
    8cb0:	cb0303e2 	neg	x2, x3
    8cb4:	8a020000 	and	x0, x0, x2
    8cb8:	8b030000 	add	x0, x0, x3
    8cbc:	f94053a3 	ldr	x3, [x29,#160]
    8cc0:	f9000ee0 	str	x0, [x23,#24]
    8cc4:	8b030003 	add	x3, x0, x3
    8cc8:	cb040000 	sub	x0, x0, x4
    8ccc:	cb010061 	sub	x1, x3, x1
    8cd0:	8a020021 	and	x1, x1, x2
    8cd4:	eb00003f 	cmp	x1, x0
    8cd8:	54000088 	b.hi	8ce8 <pthread_getattr_np+0x324>
    8cdc:	f90012e1 	str	x1, [x23,#32]
    8ce0:	2a1303f6 	mov	w22, w19
    8ce4:	17ffffe8 	b	8c84 <pthread_getattr_np+0x2c0>
    8ce8:	f90012e0 	str	x0, [x23,#32]
    8cec:	2a1303f6 	mov	w22, w19
    8cf0:	17ffffe5 	b	8c84 <pthread_getattr_np+0x2c0>
    8cf4:	aa1403e0 	mov	x0, x20
    8cf8:	97fff14a 	bl	5220 <free@plt>
    8cfc:	71009adf 	cmp	w22, #0x26
    8d00:	54ffedc1 	b.ne	8ab8 <pthread_getattr_np+0xf4>
    8d04:	f90016ff 	str	xzr, [x23,#40]
    8d08:	52800016 	mov	w22, #0x0                   	// #0
    8d0c:	f9001aff 	str	xzr, [x23,#48]
    8d10:	17ffff6a 	b	8ab8 <pthread_getattr_np+0xf4>

0000000000008d14 <__pthread_mutex_init>:
    8d14:	a9bd7bfd 	stp	x29, x30, [sp,#-48]!
    8d18:	910003fd 	mov	x29, sp
    8d1c:	a90153f3 	stp	x19, x20, [sp,#16]
    8d20:	aa0003f3 	mov	x19, x0
    8d24:	b4000761 	cbz	x1, 8e10 <__pthread_mutex_init+0xfc>
    8d28:	b9400022 	ldr	w2, [x1]
    8d2c:	72040440 	ands	w0, w2, #0x30000000
    8d30:	54000120 	b.eq	8d54 <__pthread_mutex_init+0x40>
    8d34:	52a20003 	mov	w3, #0x10000000            	// #268435456
    8d38:	6b03001f 	cmp	w0, w3
    8d3c:	540000c0 	b.eq	8d54 <__pthread_mutex_init+0x40>
    8d40:	52800be0 	mov	w0, #0x5f                  	// #95
    8d44:	36f00082 	tbz	w2, #30, 8d54 <__pthread_mutex_init+0x40>
    8d48:	a94153f3 	ldp	x19, x20, [sp,#16]
    8d4c:	a8c37bfd 	ldp	x29, x30, [sp],#48
    8d50:	d65f03c0 	ret
    8d54:	a9017e7f 	stp	xzr, xzr, [x19,#16]
    8d58:	a9007e7f 	stp	xzr, xzr, [x19]
    8d5c:	a9027e7f 	stp	xzr, xzr, [x19,#32]
    8d60:	5281ffe0 	mov	w0, #0xfff                 	// #4095
    8d64:	b9400022 	ldr	w2, [x1]
    8d68:	72a1e000 	movk	w0, #0xf00, lsl #16
    8d6c:	0a000040 	and	w0, w2, w0
    8d70:	b9001260 	str	w0, [x19,#16]
    8d74:	b9400022 	ldr	w2, [x1]
    8d78:	36f00082 	tbz	w2, #30, 8d88 <__pthread_mutex_init+0x74>
    8d7c:	321c0000 	orr	w0, w0, #0x10
    8d80:	b9001260 	str	w0, [x19,#16]
    8d84:	b9400022 	ldr	w2, [x1]
    8d88:	12040443 	and	w3, w2, #0x30000000
    8d8c:	52a20004 	mov	w4, #0x10000000            	// #268435456
    8d90:	6b04007f 	cmp	w3, w4
    8d94:	54000360 	b.eq	8e00 <__pthread_mutex_init+0xec>
    8d98:	52a40004 	mov	w4, #0x20000000            	// #536870912
    8d9c:	6b04007f 	cmp	w3, w4
    8da0:	540001e1 	b.ne	8ddc <__pthread_mutex_init+0xc8>
    8da4:	321a0000 	orr	w0, w0, #0x40
    8da8:	b9001260 	str	w0, [x19,#16]
    8dac:	b9400020 	ldr	w0, [x1]
    8db0:	d34c5c00 	ubfx	x0, x0, #12, #12
    8db4:	350000e0 	cbnz	w0, 8dd0 <__pthread_mutex_init+0xbc>
    8db8:	90000154 	adrp	x20, 30000 <_GLOBAL_OFFSET_TABLE_+0x88>
    8dbc:	b9427e80 	ldr	w0, [x20,#636]
    8dc0:	3100041f 	cmn	w0, #0x1
    8dc4:	540002c0 	b.eq	8e1c <__pthread_mutex_init+0x108>
    8dc8:	6b1f001f 	cmp	w0, wzr
    8dcc:	1a9fa000 	csel	w0, w0, wzr, ge
    8dd0:	530d3000 	lsl	w0, w0, #19
    8dd4:	b9000260 	str	w0, [x19]
    8dd8:	b9400022 	ldr	w2, [x1]
    8ddc:	7202045f 	tst	w2, #0xc0000000
    8de0:	52800000 	mov	w0, #0x0                   	// #0
    8de4:	54fffb20 	b.eq	8d48 <__pthread_mutex_init+0x34>
    8de8:	b9401261 	ldr	w1, [x19,#16]
    8dec:	32190021 	orr	w1, w1, #0x80
    8df0:	b9001261 	str	w1, [x19,#16]
    8df4:	a94153f3 	ldp	x19, x20, [sp,#16]
    8df8:	a8c37bfd 	ldp	x29, x30, [sp],#48
    8dfc:	d65f03c0 	ret
    8e00:	321b0000 	orr	w0, w0, #0x20
    8e04:	b9001260 	str	w0, [x19,#16]
    8e08:	b9400022 	ldr	w2, [x1]
    8e0c:	17fffff4 	b	8ddc <__pthread_mutex_init+0xc8>
    8e10:	d0000041 	adrp	x1, 12000 <__pthread_current_priority+0xa8>
    8e14:	912ee021 	add	x1, x1, #0xbb8
    8e18:	17ffffc4 	b	8d28 <__pthread_mutex_init+0x14>
    8e1c:	f90017a1 	str	x1, [x29,#40]
    8e20:	9400237f 	bl	11c1c <__init_sched_fifo_prio>
    8e24:	b9427e80 	ldr	w0, [x20,#636]
    8e28:	f94017a1 	ldr	x1, [x29,#40]
    8e2c:	17ffffe7 	b	8dc8 <__pthread_mutex_init+0xb4>

0000000000008e30 <__pthread_mutex_destroy>:
    8e30:	b9401001 	ldr	w1, [x0,#16]
    8e34:	372000c1 	tbnz	w1, #4, 8e4c <__pthread_mutex_destroy+0x1c>
    8e38:	b9400c02 	ldr	w2, [x0,#12]
    8e3c:	52800201 	mov	w1, #0x10                  	// #16
    8e40:	34000062 	cbz	w2, 8e4c <__pthread_mutex_destroy+0x1c>
    8e44:	2a0103e0 	mov	w0, w1
    8e48:	d65f03c0 	ret
    8e4c:	52800001 	mov	w1, #0x0                   	// #0
    8e50:	12800002 	mov	w2, #0xffffffff            	// #-1
    8e54:	b9001002 	str	w2, [x0,#16]
    8e58:	2a0103e0 	mov	w0, w1
    8e5c:	d65f03c0 	ret

0000000000008e60 <__pthread_mutex_lock_full>:
    8e60:	a9bb7bfd 	stp	x29, x30, [sp,#-80]!
    8e64:	910003fd 	mov	x29, sp
    8e68:	a9025bf5 	stp	x21, x22, [sp,#32]
    8e6c:	a90153f3 	stp	x19, x20, [sp,#16]
    8e70:	a90363f7 	stp	x23, x24, [sp,#48]
    8e74:	d53bd056 	mrs	x22, tpidr_el0
    8e78:	b9401001 	ldr	w1, [x0,#16]
    8e7c:	d11bc2d6 	sub	x22, x22, #0x6f0
    8e80:	12001822 	and	w2, w1, #0x7f
    8e84:	51004042 	sub	w2, w2, #0x10
    8e88:	b940d2d5 	ldr	w21, [x22,#208]
    8e8c:	7100cc5f 	cmp	w2, #0x33
    8e90:	54000109 	b.ls	8eb0 <__pthread_mutex_lock_full+0x50>
    8e94:	528002d4 	mov	w20, #0x16                  	// #22
    8e98:	2a1403e0 	mov	w0, w20
    8e9c:	a94153f3 	ldp	x19, x20, [sp,#16]
    8ea0:	a9425bf5 	ldp	x21, x22, [sp,#32]
    8ea4:	a94363f7 	ldp	x23, x24, [sp,#48]
    8ea8:	a8c57bfd 	ldp	x29, x30, [sp],#80
    8eac:	d65f03c0 	ret
    8eb0:	aa0003f3 	mov	x19, x0
    8eb4:	d0000040 	adrp	x0, 12000 <__pthread_current_priority+0xa8>
    8eb8:	912f0000 	add	x0, x0, #0xbc0
    8ebc:	78625800 	ldrh	w0, [x0,w2,uxtw #1]
    8ec0:	10000062 	adr	x2, 8ecc <__pthread_mutex_lock_full+0x6c>
    8ec4:	8b20a840 	add	x0, x2, w0, sxth #2
    8ec8:	d61f0000 	br	x0
    8ecc:	b9400a60 	ldr	w0, [x19,#8]
    8ed0:	b9400263 	ldr	w3, [x19]
    8ed4:	6b15001f 	cmp	w0, w21
    8ed8:	54001da0 	b.eq	928c <__pthread_mutex_lock_full+0x42c>
    8edc:	12800016 	mov	w22, #0xffffffff            	// #-1
    8ee0:	53137c74 	lsr	w20, w3, #19
    8ee4:	9400241d 	bl	11f58 <__pthread_current_priority>
    8ee8:	6b00029f 	cmp	w20, w0
    8eec:	5400204b 	b.lt	92f4 <__pthread_mutex_lock_full+0x494>
    8ef0:	2a1603e0 	mov	w0, w22
    8ef4:	2a1403e1 	mov	w1, w20
    8ef8:	94002358 	bl	11c58 <__pthread_tpp_change_priority>
    8efc:	35001f80 	cbnz	w0, 92ec <__pthread_mutex_lock_full+0x48c>
    8f00:	910143a5 	add	x5, x29, #0x50
    8f04:	530d3284 	lsl	w4, w20, #19
    8f08:	32000089 	orr	w9, w4, #0x1
    8f0c:	2a0403e0 	mov	w0, w4
    8f10:	b81fcca4 	str	w4, [x5,#-4]!
    8f14:	885ffe61 	ldaxr	w1, [x19]
    8f18:	6b00003f 	cmp	w1, w0
    8f1c:	54000061 	b.ne	8f28 <__pthread_mutex_lock_full+0xc8>
    8f20:	88027e69 	stxr	w2, w9, [x19]
    8f24:	35ffff82 	cbnz	w2, 8f14 <__pthread_mutex_lock_full+0xb4>
    8f28:	54000040 	b.eq	8f30 <__pthread_mutex_lock_full+0xd0>
    8f2c:	b9004fa1 	str	w1, [x29,#76]
    8f30:	b9404fa0 	ldr	w0, [x29,#76]
    8f34:	6b00009f 	cmp	w4, w0
    8f38:	540004c0 	b.eq	8fd0 <__pthread_mutex_lock_full+0x170>
    8f3c:	321f0087 	orr	w7, w4, #0x2
    8f40:	93407cea 	sxtw	x10, w7
    8f44:	b9004fa9 	str	w9, [x29,#76]
    8f48:	b94000a0 	ldr	w0, [x5]
    8f4c:	885ffe63 	ldaxr	w3, [x19]
    8f50:	6b00007f 	cmp	w3, w0
    8f54:	54000061 	b.ne	8f60 <__pthread_mutex_lock_full+0x100>
    8f58:	88017e67 	stxr	w1, w7, [x19]
    8f5c:	35ffff81 	cbnz	w1, 8f4c <__pthread_mutex_lock_full+0xec>
    8f60:	54000040 	b.eq	8f68 <__pthread_mutex_lock_full+0x108>
    8f64:	b90000a3 	str	w3, [x5]
    8f68:	b9404fa3 	ldr	w3, [x29,#76]
    8f6c:	120d3060 	and	w0, w3, #0xfff80000
    8f70:	6b04001f 	cmp	w0, w4
    8f74:	54001581 	b.ne	9224 <__pthread_mutex_lock_full+0x3c4>
    8f78:	6b03009f 	cmp	w4, w3
    8f7c:	54000120 	b.eq	8fa0 <__pthread_mutex_lock_full+0x140>
    8f80:	b9401266 	ldr	w6, [x19,#16]
    8f84:	aa1303e0 	mov	x0, x19
    8f88:	aa0a03e2 	mov	x2, x10
    8f8c:	d2800003 	mov	x3, #0x0                   	// #0
    8f90:	2a2603e1 	mvn	w1, w6
    8f94:	d2800c48 	mov	x8, #0x62                  	// #98
    8f98:	92790021 	and	x1, x1, #0x80
    8f9c:	d4000001 	svc	#0x0
    8fa0:	b9004fa4 	str	w4, [x29,#76]
    8fa4:	b94000a0 	ldr	w0, [x5]
    8fa8:	885ffe63 	ldaxr	w3, [x19]
    8fac:	6b00007f 	cmp	w3, w0
    8fb0:	54000061 	b.ne	8fbc <__pthread_mutex_lock_full+0x15c>
    8fb4:	88017e67 	stxr	w1, w7, [x19]
    8fb8:	35ffff81 	cbnz	w1, 8fa8 <__pthread_mutex_lock_full+0x148>
    8fbc:	54000040 	b.eq	8fc4 <__pthread_mutex_lock_full+0x164>
    8fc0:	b90000a3 	str	w3, [x5]
    8fc4:	b9404fa0 	ldr	w0, [x29,#76]
    8fc8:	6b00009f 	cmp	w4, w0
    8fcc:	54fffbc1 	b.ne	8f44 <__pthread_mutex_lock_full+0xe4>
    8fd0:	52800020 	mov	w0, #0x1                   	// #1
    8fd4:	b9000660 	str	w0, [x19,#4]
    8fd8:	b9400e60 	ldr	w0, [x19,#12]
    8fdc:	52800014 	mov	w20, #0x0                   	// #0
    8fe0:	b9000a75 	str	w21, [x19,#8]
    8fe4:	11000400 	add	w0, w0, #0x1
    8fe8:	b9000e60 	str	w0, [x19,#12]
    8fec:	2a1403e0 	mov	w0, w20
    8ff0:	a94153f3 	ldp	x19, x20, [sp,#16]
    8ff4:	a9425bf5 	ldp	x21, x22, [sp,#32]
    8ff8:	a94363f7 	ldp	x23, x24, [sp,#48]
    8ffc:	a8c57bfd 	ldp	x29, x30, [sp],#80
    9000:	d65f03c0 	ret
    9004:	121c0024 	and	w4, w1, #0x10
    9008:	36200081 	tbz	w1, #4, 9018 <__pthread_mutex_lock_full+0x1b8>
    900c:	91008260 	add	x0, x19, #0x20
    9010:	b2400000 	orr	x0, x0, #0x1
    9014:	f9007ac0 	str	x0, [x22,#240]
    9018:	b9400260 	ldr	w0, [x19]
    901c:	12007400 	and	w0, w0, #0x3fffffff
    9020:	6b0002bf 	cmp	w21, w0
    9024:	540014a0 	b.eq	92b8 <__pthread_mutex_lock_full+0x458>
    9028:	b9004fbf 	str	wzr, [x29,#76]
    902c:	885ffe60 	ldaxr	w0, [x19]
    9030:	6b1f001f 	cmp	w0, wzr
    9034:	54000061 	b.ne	9040 <__pthread_mutex_lock_full+0x1e0>
    9038:	88017e75 	stxr	w1, w21, [x19]
    903c:	35ffff81 	cbnz	w1, 902c <__pthread_mutex_lock_full+0x1cc>
    9040:	540011e1 	b.ne	927c <__pthread_mutex_lock_full+0x41c>
    9044:	b9404fa0 	ldr	w0, [x29,#76]
    9048:	34000a40 	cbz	w0, 9190 <__pthread_mutex_lock_full+0x330>
    904c:	d28000c1 	mov	x1, #0x6                   	// #6
    9050:	350000c4 	cbnz	w4, 9068 <__pthread_mutex_lock_full+0x208>
    9054:	b9401261 	ldr	w1, [x19,#16]
    9058:	528010c0 	mov	w0, #0x86                  	// #134
    905c:	12190021 	and	w1, w1, #0x80
    9060:	4a000021 	eor	w1, w1, w0
    9064:	93407c21 	sxtw	x1, w1
    9068:	aa1303e0 	mov	x0, x19
    906c:	d2800022 	mov	x2, #0x1                   	// #1
    9070:	d2800003 	mov	x3, #0x0                   	// #0
    9074:	d2800c48 	mov	x8, #0x62                  	// #98
    9078:	d4000001 	svc	#0x0
    907c:	3140041f 	cmn	w0, #0x1, lsl #12
    9080:	54000089 	b.ls	9090 <__pthread_mutex_lock_full+0x230>
    9084:	121a7800 	and	w0, w0, #0xffffffdf
    9088:	31008c1f 	cmn	w0, #0x23
    908c:	54000f20 	b.eq	9270 <__pthread_mutex_lock_full+0x410>
    9090:	b9400260 	ldr	w0, [x19]
    9094:	36f007e0 	tbz	w0, #30, 9190 <__pthread_mutex_lock_full+0x330>
    9098:	910133a5 	add	x5, x29, #0x4c
    909c:	b9004fa0 	str	w0, [x29,#76]
    90a0:	12017800 	and	w0, w0, #0xbfffffff
    90a4:	b94000a2 	ldr	w2, [x5]
    90a8:	885ffe61 	ldaxr	w1, [x19]
    90ac:	6b02003f 	cmp	w1, w2
    90b0:	54000061 	b.ne	90bc <__pthread_mutex_lock_full+0x25c>
    90b4:	88037e60 	stxr	w3, w0, [x19]
    90b8:	35ffff83 	cbnz	w3, 90a8 <__pthread_mutex_lock_full+0x248>
    90bc:	540012a0 	b.eq	9310 <__pthread_mutex_lock_full+0x4b0>
    90c0:	b90000a1 	str	w1, [x5]
    90c4:	b9400260 	ldr	w0, [x19]
    90c8:	17fffff5 	b	909c <__pthread_mutex_lock_full+0x23c>
    90cc:	91008277 	add	x23, x19, #0x20
    90d0:	f9007ad7 	str	x23, [x22,#240]
    90d4:	321f77f8 	mov	w24, #0x7ffffffe            	// #2147483646
    90d8:	b9400260 	ldr	w0, [x19]
    90dc:	12020014 	and	w20, w0, #0x40000000
    90e0:	35000a74 	cbnz	w20, 922c <__pthread_mutex_lock_full+0x3cc>
    90e4:	12007400 	and	w0, w0, #0x3fffffff
    90e8:	6b0002bf 	cmp	w21, w0
    90ec:	54000380 	b.eq	915c <__pthread_mutex_lock_full+0x2fc>
    90f0:	b9004fbf 	str	wzr, [x29,#76]
    90f4:	885ffe62 	ldaxr	w2, [x19]
    90f8:	6b1f005f 	cmp	w2, wzr
    90fc:	54000061 	b.ne	9108 <__pthread_mutex_lock_full+0x2a8>
    9100:	88007e75 	stxr	w0, w21, [x19]
    9104:	35ffff80 	cbnz	w0, 90f4 <__pthread_mutex_lock_full+0x294>
    9108:	54000680 	b.eq	91d8 <__pthread_mutex_lock_full+0x378>
    910c:	52801001 	mov	w1, #0x80                  	// #128
    9110:	aa1303e0 	mov	x0, x19
    9114:	b9004fa2 	str	w2, [x29,#76]
    9118:	94001a4e 	bl	fa50 <__lll_robust_lock_wait>
    911c:	b9400a61 	ldr	w1, [x19,#8]
    9120:	6b18003f 	cmp	w1, w24
    9124:	54000620 	b.eq	91e8 <__pthread_mutex_lock_full+0x388>
    9128:	12020014 	and	w20, w0, #0x40000000
    912c:	37f7fda0 	tbnz	w0, #30, 90e0 <__pthread_mutex_lock_full+0x280>
    9130:	aa1603e0 	mov	x0, x22
    9134:	52800021 	mov	w1, #0x1                   	// #1
    9138:	b9000661 	str	w1, [x19,#4]
    913c:	f84e0c01 	ldr	x1, [x0,#224]!
    9140:	927ff822 	and	x2, x1, #0xfffffffffffffffe
    9144:	f81f8057 	str	x23, [x2,#-8]
    9148:	f9001261 	str	x1, [x19,#32]
    914c:	f9000e60 	str	x0, [x19,#24]
    9150:	f90072d7 	str	x23, [x22,#224]
    9154:	f9007adf 	str	xzr, [x22,#240]
    9158:	17ffffa0 	b	8fd8 <__pthread_mutex_lock_full+0x178>
    915c:	b9401260 	ldr	w0, [x19,#16]
    9160:	12001800 	and	w0, w0, #0x7f
    9164:	7100481f 	cmp	w0, #0x12
    9168:	54001320 	b.eq	93cc <__pthread_mutex_lock_full+0x56c>
    916c:	7100441f 	cmp	w0, #0x11
    9170:	54fffc01 	b.ne	90f0 <__pthread_mutex_lock_full+0x290>
    9174:	f9007adf 	str	xzr, [x22,#240]
    9178:	b9400660 	ldr	w0, [x19,#4]
    917c:	3100041f 	cmn	w0, #0x1
    9180:	54000980 	b.eq	92b0 <__pthread_mutex_lock_full+0x450>
    9184:	11000400 	add	w0, w0, #0x1
    9188:	b9000660 	str	w0, [x19,#4]
    918c:	17ffff98 	b	8fec <__pthread_mutex_lock_full+0x18c>
    9190:	34fff204 	cbz	w4, 8fd0 <__pthread_mutex_lock_full+0x170>
    9194:	b9400a61 	ldr	w1, [x19,#8]
    9198:	321f77e0 	mov	w0, #0x7ffffffe            	// #2147483646
    919c:	6b00003f 	cmp	w1, w0
    91a0:	54001020 	b.eq	93a4 <__pthread_mutex_lock_full+0x544>
    91a4:	aa1603e0 	mov	x0, x22
    91a8:	52800021 	mov	w1, #0x1                   	// #1
    91ac:	b9000661 	str	w1, [x19,#4]
    91b0:	91008262 	add	x2, x19, #0x20
    91b4:	b2400043 	orr	x3, x2, #0x1
    91b8:	f84e0c01 	ldr	x1, [x0,#224]!
    91bc:	927ff824 	and	x4, x1, #0xfffffffffffffffe
    91c0:	f81f8082 	str	x2, [x4,#-8]
    91c4:	f9001261 	str	x1, [x19,#32]
    91c8:	f9000e60 	str	x0, [x19,#24]
    91cc:	f90072c3 	str	x3, [x22,#224]
    91d0:	f9007adf 	str	xzr, [x22,#240]
    91d4:	17ffff81 	b	8fd8 <__pthread_mutex_lock_full+0x178>
    91d8:	b9400a61 	ldr	w1, [x19,#8]
    91dc:	321f77e0 	mov	w0, #0x7ffffffe            	// #2147483646
    91e0:	6b00003f 	cmp	w1, w0
    91e4:	54fffa61 	b.ne	9130 <__pthread_mutex_lock_full+0x2d0>
    91e8:	b900067f 	str	wzr, [x19,#4]
    91ec:	52800001 	mov	w1, #0x0                   	// #0
    91f0:	885f7e60 	ldxr	w0, [x19]
    91f4:	8802fe61 	stlxr	w2, w1, [x19]
    91f8:	35ffffc2 	cbnz	w2, 91f0 <__pthread_mutex_lock_full+0x390>
    91fc:	7100041f 	cmp	w0, #0x1
    9200:	54000c4c 	b.gt	9388 <__pthread_mutex_lock_full+0x528>
    9204:	f9007adf 	str	xzr, [x22,#240]
    9208:	52801074 	mov	w20, #0x83                  	// #131
    920c:	2a1403e0 	mov	w0, w20
    9210:	a94153f3 	ldp	x19, x20, [sp,#16]
    9214:	a9425bf5 	ldp	x21, x22, [sp,#32]
    9218:	a94363f7 	ldp	x23, x24, [sp,#48]
    921c:	a8c57bfd 	ldp	x29, x30, [sp],#80
    9220:	d65f03c0 	ret
    9224:	2a1403f6 	mov	w22, w20
    9228:	17ffff2e 	b	8ee0 <__pthread_mutex_lock_full+0x80>
    922c:	12010001 	and	w1, w0, #0x80000000
    9230:	b9004fa0 	str	w0, [x29,#76]
    9234:	2a150021 	orr	w1, w1, w21
    9238:	2a0003e2 	mov	w2, w0
    923c:	885ffe63 	ldaxr	w3, [x19]
    9240:	6b02007f 	cmp	w3, w2
    9244:	54000061 	b.ne	9250 <__pthread_mutex_lock_full+0x3f0>
    9248:	88047e61 	stxr	w4, w1, [x19]
    924c:	35ffff84 	cbnz	w4, 923c <__pthread_mutex_lock_full+0x3dc>
    9250:	54000040 	b.eq	9258 <__pthread_mutex_lock_full+0x3f8>
    9254:	b9004fa3 	str	w3, [x29,#76]
    9258:	b9404fa1 	ldr	w1, [x29,#76]
    925c:	6b01001f 	cmp	w0, w1
    9260:	54000780 	b.eq	9350 <__pthread_mutex_lock_full+0x4f0>
    9264:	2a0103e0 	mov	w0, w1
    9268:	12020034 	and	w20, w1, #0x40000000
    926c:	17ffff9d 	b	90e0 <__pthread_mutex_lock_full+0x280>
    9270:	94001dfa 	bl	10a58 <__pause_nocancel>
    9274:	94001df9 	bl	10a58 <__pause_nocancel>
    9278:	17fffffe 	b	9270 <__pthread_mutex_lock_full+0x410>
    927c:	b9004fa0 	str	w0, [x29,#76]
    9280:	b9404fa0 	ldr	w0, [x29,#76]
    9284:	34fff860 	cbz	w0, 9190 <__pthread_mutex_lock_full+0x330>
    9288:	17ffff71 	b	904c <__pthread_mutex_lock_full+0x1ec>
    928c:	12000421 	and	w1, w1, #0x3
    9290:	52800474 	mov	w20, #0x23                  	// #35
    9294:	7100083f 	cmp	w1, #0x2
    9298:	54ffeaa0 	b.eq	8fec <__pthread_mutex_lock_full+0x18c>
    929c:	7100043f 	cmp	w1, #0x1
    92a0:	54ffe1e1 	b.ne	8edc <__pthread_mutex_lock_full+0x7c>
    92a4:	b9400660 	ldr	w0, [x19,#4]
    92a8:	3100041f 	cmn	w0, #0x1
    92ac:	54000181 	b.ne	92dc <__pthread_mutex_lock_full+0x47c>
    92b0:	52800174 	mov	w20, #0xb                   	// #11
    92b4:	17ffff4e 	b	8fec <__pthread_mutex_lock_full+0x18c>
    92b8:	12000421 	and	w1, w1, #0x3
    92bc:	7100083f 	cmp	w1, #0x2
    92c0:	54000860 	b.eq	93cc <__pthread_mutex_lock_full+0x56c>
    92c4:	7100043f 	cmp	w1, #0x1
    92c8:	54ffeb01 	b.ne	9028 <__pthread_mutex_lock_full+0x1c8>
    92cc:	f9007adf 	str	xzr, [x22,#240]
    92d0:	b9400660 	ldr	w0, [x19,#4]
    92d4:	3100041f 	cmn	w0, #0x1
    92d8:	54fffec0 	b.eq	92b0 <__pthread_mutex_lock_full+0x450>
    92dc:	11000400 	add	w0, w0, #0x1
    92e0:	52800014 	mov	w20, #0x0                   	// #0
    92e4:	b9000660 	str	w0, [x19,#4]
    92e8:	17ffff41 	b	8fec <__pthread_mutex_lock_full+0x18c>
    92ec:	2a0003f4 	mov	w20, w0
    92f0:	17ffff3f 	b	8fec <__pthread_mutex_lock_full+0x18c>
    92f4:	310006df 	cmn	w22, #0x1
    92f8:	528002d4 	mov	w20, #0x16                  	// #22
    92fc:	54ffe780 	b.eq	8fec <__pthread_mutex_lock_full+0x18c>
    9300:	2a1603e0 	mov	w0, w22
    9304:	12800001 	mov	w1, #0xffffffff            	// #-1
    9308:	94002254 	bl	11c58 <__pthread_tpp_change_priority>
    930c:	17ffff38 	b	8fec <__pthread_mutex_lock_full+0x18c>
    9310:	aa1603e0 	mov	x0, x22
    9314:	52800021 	mov	w1, #0x1                   	// #1
    9318:	b9000661 	str	w1, [x19,#4]
    931c:	12b00001 	mov	w1, #0x7fffffff            	// #2147483647
    9320:	b9000a61 	str	w1, [x19,#8]
    9324:	91008262 	add	x2, x19, #0x20
    9328:	b2400043 	orr	x3, x2, #0x1
    932c:	52801054 	mov	w20, #0x82                  	// #130
    9330:	f84e0c01 	ldr	x1, [x0,#224]!
    9334:	927ff824 	and	x4, x1, #0xfffffffffffffffe
    9338:	f81f8082 	str	x2, [x4,#-8]
    933c:	f9001261 	str	x1, [x19,#32]
    9340:	f9000e60 	str	x0, [x19,#24]
    9344:	f90072c3 	str	x3, [x22,#224]
    9348:	f9007adf 	str	xzr, [x22,#240]
    934c:	17ffff28 	b	8fec <__pthread_mutex_lock_full+0x18c>
    9350:	aa1603e0 	mov	x0, x22
    9354:	52800021 	mov	w1, #0x1                   	// #1
    9358:	b9000661 	str	w1, [x19,#4]
    935c:	12b00001 	mov	w1, #0x7fffffff            	// #2147483647
    9360:	b9000a61 	str	w1, [x19,#8]
    9364:	52801054 	mov	w20, #0x82                  	// #130
    9368:	f84e0c01 	ldr	x1, [x0,#224]!
    936c:	927ff822 	and	x2, x1, #0xfffffffffffffffe
    9370:	f81f8057 	str	x23, [x2,#-8]
    9374:	f9001261 	str	x1, [x19,#32]
    9378:	f9000e60 	str	x0, [x19,#24]
    937c:	f90072d7 	str	x23, [x22,#224]
    9380:	f9007adf 	str	xzr, [x22,#240]
    9384:	17ffff1a 	b	8fec <__pthread_mutex_lock_full+0x18c>
    9388:	d2800021 	mov	x1, #0x1                   	// #1
    938c:	aa1303e0 	mov	x0, x19
    9390:	aa0103e2 	mov	x2, x1
    9394:	d2800003 	mov	x3, #0x0                   	// #0
    9398:	d2800c48 	mov	x8, #0x62                  	// #98
    939c:	d4000001 	svc	#0x0
    93a0:	17ffff99 	b	9204 <__pthread_mutex_lock_full+0x3a4>
    93a4:	d2800002 	mov	x2, #0x0                   	// #0
    93a8:	b900067f 	str	wzr, [x19,#4]
    93ac:	aa1303e0 	mov	x0, x19
    93b0:	d28000e1 	mov	x1, #0x7                   	// #7
    93b4:	aa0203e3 	mov	x3, x2
    93b8:	d2800c48 	mov	x8, #0x62                  	// #98
    93bc:	d4000001 	svc	#0x0
    93c0:	52801074 	mov	w20, #0x83                  	// #131
    93c4:	f9007ac2 	str	x2, [x22,#240]
    93c8:	17ffff09 	b	8fec <__pthread_mutex_lock_full+0x18c>
    93cc:	f9007adf 	str	xzr, [x22,#240]
    93d0:	52800474 	mov	w20, #0x23                  	// #35
    93d4:	17ffff06 	b	8fec <__pthread_mutex_lock_full+0x18c>

00000000000093d8 <__pthread_mutex_lock>:
    93d8:	a9bc7bfd 	stp	x29, x30, [sp,#-64]!
    93dc:	52802fe1 	mov	w1, #0x17f                 	// #383
    93e0:	910003fd 	mov	x29, sp
    93e4:	a90153f3 	stp	x19, x20, [sp,#16]
    93e8:	f90013f5 	str	x21, [sp,#32]
    93ec:	aa0003f3 	mov	x19, x0
    93f0:	b9401002 	ldr	w2, [x0,#16]
    93f4:	721e1043 	ands	w3, w2, #0x7c
    93f8:	0a010041 	and	w1, w2, w1
    93fc:	540003c1 	b.ne	9474 <__pthread_mutex_lock+0x9c>
    9400:	35000441 	cbnz	w1, 9488 <__pthread_mutex_lock+0xb0>
    9404:	b9003fa1 	str	w1, [x29,#60]
    9408:	52800020 	mov	w0, #0x1                   	// #1
    940c:	885ffe63 	ldaxr	w3, [x19]
    9410:	6b1f007f 	cmp	w3, wzr
    9414:	54000061 	b.ne	9420 <__pthread_mutex_lock+0x48>
    9418:	88017e60 	stxr	w1, w0, [x19]
    941c:	35ffff81 	cbnz	w1, 940c <__pthread_mutex_lock+0x34>
    9420:	54000120 	b.eq	9444 <__pthread_mutex_lock+0x6c>
    9424:	b9401261 	ldr	w1, [x19,#16]
    9428:	d53bd042 	mrs	x2, tpidr_el0
    942c:	b9003fa3 	str	w3, [x29,#60]
    9430:	12190021 	and	w1, w1, #0x80
    9434:	aa1303e0 	mov	x0, x19
    9438:	d11bc054 	sub	x20, x2, #0x6f0
    943c:	940018e2 	bl	f7c4 <__lll_lock_wait>
    9440:	14000003 	b	944c <__pthread_mutex_lock+0x74>
    9444:	d53bd042 	mrs	x2, tpidr_el0
    9448:	d11bc054 	sub	x20, x2, #0x6f0
    944c:	b9400e61 	ldr	w1, [x19,#12]
    9450:	52800000 	mov	w0, #0x0                   	// #0
    9454:	b940d282 	ldr	w2, [x20,#208]
    9458:	11000421 	add	w1, w1, #0x1
    945c:	b9000a62 	str	w2, [x19,#8]
    9460:	b9000e61 	str	w1, [x19,#12]
    9464:	a94153f3 	ldp	x19, x20, [sp,#16]
    9468:	f94013f5 	ldr	x21, [sp,#32]
    946c:	a8c47bfd 	ldp	x29, x30, [sp],#64
    9470:	d65f03c0 	ret
    9474:	97fffe7b 	bl	8e60 <__pthread_mutex_lock_full>
    9478:	f94013f5 	ldr	x21, [sp,#32]
    947c:	a94153f3 	ldp	x19, x20, [sp,#16]
    9480:	a8c47bfd 	ldp	x29, x30, [sp],#64
    9484:	d65f03c0 	ret
    9488:	12001841 	and	w1, w2, #0x7f
    948c:	7100043f 	cmp	w1, #0x1
    9490:	54000381 	b.ne	9500 <__pthread_mutex_lock+0x128>
    9494:	d53bd042 	mrs	x2, tpidr_el0
    9498:	b9400804 	ldr	w4, [x0,#8]
    949c:	d11bc054 	sub	x20, x2, #0x6f0
    94a0:	b940d282 	ldr	w2, [x20,#208]
    94a4:	6b02009f 	cmp	w4, w2
    94a8:	540001e0 	b.eq	94e4 <__pthread_mutex_lock+0x10c>
    94ac:	b9003fa3 	str	w3, [x29,#60]
    94b0:	885ffe62 	ldaxr	w2, [x19]
    94b4:	6b1f005f 	cmp	w2, wzr
    94b8:	54000061 	b.ne	94c4 <__pthread_mutex_lock+0xec>
    94bc:	88037e61 	stxr	w3, w1, [x19]
    94c0:	35ffff83 	cbnz	w3, 94b0 <__pthread_mutex_lock+0xd8>
    94c4:	540000a0 	b.eq	94d8 <__pthread_mutex_lock+0x100>
    94c8:	b9401261 	ldr	w1, [x19,#16]
    94cc:	b9003fa2 	str	w2, [x29,#60]
    94d0:	12190021 	and	w1, w1, #0x80
    94d4:	940018bc 	bl	f7c4 <__lll_lock_wait>
    94d8:	52800020 	mov	w0, #0x1                   	// #1
    94dc:	b9000660 	str	w0, [x19,#4]
    94e0:	17ffffdb 	b	944c <__pthread_mutex_lock+0x74>
    94e4:	b9400400 	ldr	w0, [x0,#4]
    94e8:	3100041f 	cmn	w0, #0x1
    94ec:	540002e0 	b.eq	9548 <__pthread_mutex_lock+0x170>
    94f0:	11000401 	add	w1, w0, #0x1
    94f4:	2a0303e0 	mov	w0, w3
    94f8:	b9000661 	str	w1, [x19,#4]
    94fc:	17ffffda 	b	9464 <__pthread_mutex_lock+0x8c>
    9500:	71000c3f 	cmp	w1, #0x3
    9504:	54000881 	b.ne	9614 <__pthread_mutex_lock+0x23c>
    9508:	f0000140 	adrp	x0, 34000 <__GI___pthread_keys+0x3d78>
    950c:	b9432c00 	ldr	w0, [x0,#812]
    9510:	35000200 	cbnz	w0, 9550 <__pthread_mutex_lock+0x178>
    9514:	d53bd042 	mrs	x2, tpidr_el0
    9518:	b9003fbf 	str	wzr, [x29,#60]
    951c:	52800020 	mov	w0, #0x1                   	// #1
    9520:	885ffe63 	ldaxr	w3, [x19]
    9524:	6b1f007f 	cmp	w3, wzr
    9528:	54000061 	b.ne	9534 <__pthread_mutex_lock+0x15c>
    952c:	88017e60 	stxr	w1, w0, [x19]
    9530:	35ffff81 	cbnz	w1, 9520 <__pthread_mutex_lock+0x148>
    9534:	54fff8a0 	b.eq	9448 <__pthread_mutex_lock+0x70>
    9538:	b9401261 	ldr	w1, [x19,#16]
    953c:	b9003fa3 	str	w3, [x29,#60]
    9540:	12190021 	and	w1, w1, #0x80
    9544:	17ffffbc 	b	9434 <__pthread_mutex_lock+0x5c>
    9548:	52800160 	mov	w0, #0xb                   	// #11
    954c:	17ffffc6 	b	9464 <__pthread_mutex_lock+0x8c>
    9550:	b9003fa3 	str	w3, [x29,#60]
    9554:	52800022 	mov	w2, #0x1                   	// #1
    9558:	885ffe60 	ldaxr	w0, [x19]
    955c:	6b1f001f 	cmp	w0, wzr
    9560:	54000061 	b.ne	956c <__pthread_mutex_lock+0x194>
    9564:	88017e62 	stxr	w1, w2, [x19]
    9568:	35ffff81 	cbnz	w1, 9558 <__pthread_mutex_lock+0x180>
    956c:	1a9f17f5 	cset	w21, eq
    9570:	35fff6b5 	cbnz	w21, 9444 <__pthread_mutex_lock+0x6c>
    9574:	b9401661 	ldr	w1, [x19,#20]
    9578:	52800c80 	mov	w0, #0x64                  	// #100
    957c:	11001421 	add	w1, w1, #0x5
    9580:	531f7821 	lsl	w1, w1, #1
    9584:	7101903f 	cmp	w1, #0x64
    9588:	1a80d021 	csel	w1, w1, w0, le
    958c:	110006b5 	add	w21, w21, #0x1
    9590:	b9003fbf 	str	wzr, [x29,#60]
    9594:	510006a0 	sub	w0, w21, #0x1
    9598:	6b01001f 	cmp	w0, w1
    959c:	5400022a 	b.ge	95e0 <__pthread_mutex_lock+0x208>
    95a0:	885ffe60 	ldaxr	w0, [x19]
    95a4:	6b1f001f 	cmp	w0, wzr
    95a8:	54000061 	b.ne	95b4 <__pthread_mutex_lock+0x1dc>
    95ac:	88037e62 	stxr	w3, w2, [x19]
    95b0:	35ffff83 	cbnz	w3, 95a0 <__pthread_mutex_lock+0x1c8>
    95b4:	54fffec1 	b.ne	958c <__pthread_mutex_lock+0x1b4>
    95b8:	b9401661 	ldr	w1, [x19,#20]
    95bc:	d53bd042 	mrs	x2, tpidr_el0
    95c0:	d11bc054 	sub	x20, x2, #0x6f0
    95c4:	4b0102b5 	sub	w21, w21, w1
    95c8:	11001ea0 	add	w0, w21, #0x7
    95cc:	6b1f02bf 	cmp	w21, wzr
    95d0:	1a95b015 	csel	w21, w0, w21, lt
    95d4:	0b950c35 	add	w21, w1, w21, asr #3
    95d8:	b9001675 	str	w21, [x19,#20]
    95dc:	17ffff9c 	b	944c <__pthread_mutex_lock+0x74>
    95e0:	52800020 	mov	w0, #0x1                   	// #1
    95e4:	885ffe62 	ldaxr	w2, [x19]
    95e8:	6b1f005f 	cmp	w2, wzr
    95ec:	54000061 	b.ne	95f8 <__pthread_mutex_lock+0x220>
    95f0:	88017e60 	stxr	w1, w0, [x19]
    95f4:	35ffff81 	cbnz	w1, 95e4 <__pthread_mutex_lock+0x20c>
    95f8:	54fffe00 	b.eq	95b8 <__pthread_mutex_lock+0x1e0>
    95fc:	b9401261 	ldr	w1, [x19,#16]
    9600:	aa1303e0 	mov	x0, x19
    9604:	b9003fa2 	str	w2, [x29,#60]
    9608:	12190021 	and	w1, w1, #0x80
    960c:	9400186e 	bl	f7c4 <__lll_lock_wait>
    9610:	17ffffea 	b	95b8 <__pthread_mutex_lock+0x1e0>
    9614:	d53bd042 	mrs	x2, tpidr_el0
    9618:	b9400800 	ldr	w0, [x0,#8]
    961c:	d11bc041 	sub	x1, x2, #0x6f0
    9620:	b940d021 	ldr	w1, [x1,#208]
    9624:	6b00003f 	cmp	w1, w0
    9628:	54fff781 	b.ne	9518 <__pthread_mutex_lock+0x140>
    962c:	52800460 	mov	w0, #0x23                  	// #35
    9630:	17ffff8d 	b	9464 <__pthread_mutex_lock+0x8c>

0000000000009634 <__pthread_mutex_trylock>:
    9634:	a9bb7bfd 	stp	x29, x30, [sp,#-80]!
    9638:	aa0003e4 	mov	x4, x0
    963c:	d53bd045 	mrs	x5, tpidr_el0
    9640:	910003fd 	mov	x29, sp
    9644:	f9001bf7 	str	x23, [sp,#48]
    9648:	d11bc0a5 	sub	x5, x5, #0x6f0
    964c:	a90153f3 	stp	x19, x20, [sp,#16]
    9650:	a9025bf5 	stp	x21, x22, [sp,#32]
    9654:	b940d0b7 	ldr	w23, [x5,#208]
    9658:	b9401002 	ldr	w2, [x0,#16]
    965c:	52802fe0 	mov	w0, #0x17f                 	// #383
    9660:	0a000040 	and	w0, w2, w0
    9664:	71008c1f 	cmp	w0, #0x23
    9668:	54000328 	b.hi	96cc <__pthread_mutex_trylock+0x98>
    966c:	7100801f 	cmp	w0, #0x20
    9670:	54000542 	b.cs	9718 <__pthread_mutex_trylock+0xe4>
    9674:	71000c1f 	cmp	w0, #0x3
    9678:	54001008 	b.hi	9878 <__pthread_mutex_trylock+0x244>
    967c:	7100081f 	cmp	w0, #0x2
    9680:	54000962 	b.cs	97ac <__pthread_mutex_trylock+0x178>
    9684:	34000940 	cbz	w0, 97ac <__pthread_mutex_trylock+0x178>
    9688:	7100041f 	cmp	w0, #0x1
    968c:	54000821 	b.ne	9790 <__pthread_mutex_trylock+0x15c>
    9690:	b9400880 	ldr	w0, [x4,#8]
    9694:	6b17001f 	cmp	w0, w23
    9698:	540019e1 	b.ne	99d4 <__pthread_mutex_trylock+0x3a0>
    969c:	b9400480 	ldr	w0, [x4,#4]
    96a0:	3100041f 	cmn	w0, #0x1
    96a4:	540021c0 	b.eq	9adc <__pthread_mutex_trylock+0x4a8>
    96a8:	11000400 	add	w0, w0, #0x1
    96ac:	52800013 	mov	w19, #0x0                   	// #0
    96b0:	b9000480 	str	w0, [x4,#4]
    96b4:	2a1303e0 	mov	w0, w19
    96b8:	f9401bf7 	ldr	x23, [sp,#48]
    96bc:	a94153f3 	ldp	x19, x20, [sp,#16]
    96c0:	a9425bf5 	ldp	x21, x22, [sp,#32]
    96c4:	a8c57bfd 	ldp	x29, x30, [sp],#80
    96c8:	d65f03c0 	ret
    96cc:	71010c1f 	cmp	w0, #0x43
    96d0:	540001a9 	b.ls	9704 <__pthread_mutex_trylock+0xd0>
    96d4:	7104001f 	cmp	w0, #0x100
    96d8:	54000581 	b.ne	9788 <__pthread_mutex_trylock+0x154>
    96dc:	b9004fbf 	str	wzr, [x29,#76]
    96e0:	52800020 	mov	w0, #0x1                   	// #1
    96e4:	885ffc81 	ldaxr	w1, [x4]
    96e8:	6b1f003f 	cmp	w1, wzr
    96ec:	54000061 	b.ne	96f8 <__pthread_mutex_trylock+0xc4>
    96f0:	88027c80 	stxr	w2, w0, [x4]
    96f4:	35ffff82 	cbnz	w2, 96e4 <__pthread_mutex_trylock+0xb0>
    96f8:	540003a1 	b.ne	976c <__pthread_mutex_trylock+0x138>
    96fc:	52800013 	mov	w19, #0x0                   	// #0
    9700:	17ffffed 	b	96b4 <__pthread_mutex_trylock+0x80>
    9704:	7101001f 	cmp	w0, #0x40
    9708:	540006e2 	b.cs	97e4 <__pthread_mutex_trylock+0x1b0>
    970c:	5100c000 	sub	w0, w0, #0x30
    9710:	71000c1f 	cmp	w0, #0x3
    9714:	540003e8 	b.hi	9790 <__pthread_mutex_trylock+0x15c>
    9718:	121c0046 	and	w6, w2, #0x10
    971c:	36200082 	tbz	w2, #4, 972c <__pthread_mutex_trylock+0xf8>
    9720:	91008080 	add	x0, x4, #0x20
    9724:	b2400000 	orr	x0, x0, #0x1
    9728:	f90078a0 	str	x0, [x5,#240]
    972c:	b9400080 	ldr	w0, [x4]
    9730:	12007400 	and	w0, w0, #0x3fffffff
    9734:	6b0002ff 	cmp	w23, w0
    9738:	54001c00 	b.eq	9ab8 <__pthread_mutex_trylock+0x484>
    973c:	b9004fbf 	str	wzr, [x29,#76]
    9740:	885ffc80 	ldaxr	w0, [x4]
    9744:	6b1f001f 	cmp	w0, wzr
    9748:	54000061 	b.ne	9754 <__pthread_mutex_trylock+0x120>
    974c:	88017c97 	stxr	w1, w23, [x4]
    9750:	35ffff81 	cbnz	w1, 9740 <__pthread_mutex_trylock+0x10c>
    9754:	54000040 	b.eq	975c <__pthread_mutex_trylock+0x128>
    9758:	b9004fa0 	str	w0, [x29,#76]
    975c:	b9404fa0 	ldr	w0, [x29,#76]
    9760:	34001580 	cbz	w0, 9a10 <__pthread_mutex_trylock+0x3dc>
    9764:	37f01840 	tbnz	w0, #30, 9a6c <__pthread_mutex_trylock+0x438>
    9768:	f90078bf 	str	xzr, [x5,#240]
    976c:	52800213 	mov	w19, #0x10                  	// #16
    9770:	f9401bf7 	ldr	x23, [sp,#48]
    9774:	2a1303e0 	mov	w0, w19
    9778:	a94153f3 	ldp	x19, x20, [sp,#16]
    977c:	a9425bf5 	ldp	x21, x22, [sp,#32]
    9780:	a8c57bfd 	ldp	x29, x30, [sp],#80
    9784:	d65f03c0 	ret
    9788:	7104041f 	cmp	w0, #0x101
    978c:	54fff820 	b.eq	9690 <__pthread_mutex_trylock+0x5c>
    9790:	528002d3 	mov	w19, #0x16                  	// #22
    9794:	f9401bf7 	ldr	x23, [sp,#48]
    9798:	2a1303e0 	mov	w0, w19
    979c:	a94153f3 	ldp	x19, x20, [sp,#16]
    97a0:	a9425bf5 	ldp	x21, x22, [sp,#32]
    97a4:	a8c57bfd 	ldp	x29, x30, [sp],#80
    97a8:	d65f03c0 	ret
    97ac:	b9004fbf 	str	wzr, [x29,#76]
    97b0:	52800020 	mov	w0, #0x1                   	// #1
    97b4:	885ffc81 	ldaxr	w1, [x4]
    97b8:	6b1f003f 	cmp	w1, wzr
    97bc:	54000061 	b.ne	97c8 <__pthread_mutex_trylock+0x194>
    97c0:	88027c80 	stxr	w2, w0, [x4]
    97c4:	35ffff82 	cbnz	w2, 97b4 <__pthread_mutex_trylock+0x180>
    97c8:	54fffd21 	b.ne	976c <__pthread_mutex_trylock+0x138>
    97cc:	b9400c80 	ldr	w0, [x4,#12]
    97d0:	52800013 	mov	w19, #0x0                   	// #0
    97d4:	b9000897 	str	w23, [x4,#8]
    97d8:	11000400 	add	w0, w0, #0x1
    97dc:	b9000c80 	str	w0, [x4,#12]
    97e0:	17ffffb5 	b	96b4 <__pthread_mutex_trylock+0x80>
    97e4:	b9400880 	ldr	w0, [x4,#8]
    97e8:	b9400081 	ldr	w1, [x4]
    97ec:	6b17001f 	cmp	w0, w23
    97f0:	540017a0 	b.eq	9ae4 <__pthread_mutex_trylock+0x4b0>
    97f4:	aa0403f5 	mov	x21, x4
    97f8:	12800016 	mov	w22, #0xffffffff            	// #-1
    97fc:	53137c34 	lsr	w20, w1, #19
    9800:	940021d6 	bl	11f58 <__pthread_current_priority>
    9804:	6b00029f 	cmp	w20, w0
    9808:	2a1403e1 	mov	w1, w20
    980c:	2a1603e0 	mov	w0, w22
    9810:	5400178b 	b.lt	9b00 <__pthread_mutex_trylock+0x4cc>
    9814:	94002111 	bl	11c58 <__pthread_tpp_change_priority>
    9818:	530d3282 	lsl	w2, w20, #19
    981c:	350017e0 	cbnz	w0, 9b18 <__pthread_mutex_trylock+0x4e4>
    9820:	b9004fa2 	str	w2, [x29,#76]
    9824:	32000040 	orr	w0, w2, #0x1
    9828:	2a0203e1 	mov	w1, w2
    982c:	885ffea3 	ldaxr	w3, [x21]
    9830:	6b01007f 	cmp	w3, w1
    9834:	54000061 	b.ne	9840 <__pthread_mutex_trylock+0x20c>
    9838:	88047ea0 	stxr	w4, w0, [x21]
    983c:	35ffff84 	cbnz	w4, 982c <__pthread_mutex_trylock+0x1f8>
    9840:	54000040 	b.eq	9848 <__pthread_mutex_trylock+0x214>
    9844:	b9004fa3 	str	w3, [x29,#76]
    9848:	b9404fa1 	ldr	w1, [x29,#76]
    984c:	2a1403f6 	mov	w22, w20
    9850:	6b01005f 	cmp	w2, w1
    9854:	120d3020 	and	w0, w1, #0xfff80000
    9858:	54001640 	b.eq	9b20 <__pthread_mutex_trylock+0x4ec>
    985c:	6b02001f 	cmp	w0, w2
    9860:	54fffce1 	b.ne	97fc <__pthread_mutex_trylock+0x1c8>
    9864:	2a1403e0 	mov	w0, w20
    9868:	12800001 	mov	w1, #0xffffffff            	// #-1
    986c:	52800213 	mov	w19, #0x10                  	// #16
    9870:	940020fa 	bl	11c58 <__pthread_tpp_change_priority>
    9874:	17ffff90 	b	96b4 <__pthread_mutex_trylock+0x80>
    9878:	51004000 	sub	w0, w0, #0x10
    987c:	71000c1f 	cmp	w0, #0x3
    9880:	54fff888 	b.hi	9790 <__pthread_mutex_trylock+0x15c>
    9884:	91008087 	add	x7, x4, #0x20
    9888:	f90078a7 	str	x7, [x5,#240]
    988c:	321f77e3 	mov	w3, #0x7ffffffe            	// #2147483646
    9890:	b9400081 	ldr	w1, [x4]
    9894:	12020033 	and	w19, w1, #0x40000000
    9898:	350007d3 	cbnz	w19, 9990 <__pthread_mutex_trylock+0x35c>
    989c:	12007421 	and	w1, w1, #0x3fffffff
    98a0:	6b0102ff 	cmp	w23, w1
    98a4:	54000360 	b.eq	9910 <__pthread_mutex_trylock+0x2dc>
    98a8:	b9004fbf 	str	wzr, [x29,#76]
    98ac:	885ffc80 	ldaxr	w0, [x4]
    98b0:	6b1f001f 	cmp	w0, wzr
    98b4:	54000061 	b.ne	98c0 <__pthread_mutex_trylock+0x28c>
    98b8:	88017c97 	stxr	w1, w23, [x4]
    98bc:	35ffff81 	cbnz	w1, 98ac <__pthread_mutex_trylock+0x278>
    98c0:	54000040 	b.eq	98c8 <__pthread_mutex_trylock+0x294>
    98c4:	b9004fa0 	str	w0, [x29,#76]
    98c8:	b9404fa1 	ldr	w1, [x29,#76]
    98cc:	340003c1 	cbz	w1, 9944 <__pthread_mutex_trylock+0x310>
    98d0:	12020033 	and	w19, w1, #0x40000000
    98d4:	36f7f4a1 	tbz	w1, #30, 9768 <__pthread_mutex_trylock+0x134>
    98d8:	b9400880 	ldr	w0, [x4,#8]
    98dc:	6b03001f 	cmp	w0, w3
    98e0:	54fffdc1 	b.ne	9898 <__pthread_mutex_trylock+0x264>
    98e4:	b900049f 	str	wzr, [x4,#4]
    98e8:	6b0102ff 	cmp	w23, w1
    98ec:	540012a0 	b.eq	9b40 <__pthread_mutex_trylock+0x50c>
    98f0:	f90078bf 	str	xzr, [x5,#240]
    98f4:	52801073 	mov	w19, #0x83                  	// #131
    98f8:	2a1303e0 	mov	w0, w19
    98fc:	f9401bf7 	ldr	x23, [sp,#48]
    9900:	a94153f3 	ldp	x19, x20, [sp,#16]
    9904:	a9425bf5 	ldp	x21, x22, [sp,#32]
    9908:	a8c57bfd 	ldp	x29, x30, [sp],#80
    990c:	d65f03c0 	ret
    9910:	b9401080 	ldr	w0, [x4,#16]
    9914:	12001800 	and	w0, w0, #0x7f
    9918:	7100481f 	cmp	w0, #0x12
    991c:	54001480 	b.eq	9bac <__pthread_mutex_trylock+0x578>
    9920:	7100441f 	cmp	w0, #0x11
    9924:	54fffc21 	b.ne	98a8 <__pthread_mutex_trylock+0x274>
    9928:	f90078bf 	str	xzr, [x5,#240]
    992c:	b9400480 	ldr	w0, [x4,#4]
    9930:	3100041f 	cmn	w0, #0x1
    9934:	54000d40 	b.eq	9adc <__pthread_mutex_trylock+0x4a8>
    9938:	11000400 	add	w0, w0, #0x1
    993c:	b9000480 	str	w0, [x4,#4]
    9940:	17ffff5d 	b	96b4 <__pthread_mutex_trylock+0x80>
    9944:	b9400882 	ldr	w2, [x4,#8]
    9948:	321f77e0 	mov	w0, #0x7ffffffe            	// #2147483646
    994c:	6b00005f 	cmp	w2, w0
    9950:	54fffca0 	b.eq	98e4 <__pthread_mutex_trylock+0x2b0>
    9954:	aa0503e0 	mov	x0, x5
    9958:	f84e0c01 	ldr	x1, [x0,#224]!
    995c:	927ff822 	and	x2, x1, #0xfffffffffffffffe
    9960:	f81f8047 	str	x7, [x2,#-8]
    9964:	f9001081 	str	x1, [x4,#32]
    9968:	52800021 	mov	w1, #0x1                   	// #1
    996c:	f9000c80 	str	x0, [x4,#24]
    9970:	f90070a7 	str	x7, [x5,#224]
    9974:	f90078bf 	str	xzr, [x5,#240]
    9978:	b9000897 	str	w23, [x4,#8]
    997c:	b9400c80 	ldr	w0, [x4,#12]
    9980:	b9000481 	str	w1, [x4,#4]
    9984:	0b010000 	add	w0, w0, w1
    9988:	b9000c80 	str	w0, [x4,#12]
    998c:	17ffff4a 	b	96b4 <__pthread_mutex_trylock+0x80>
    9990:	12010020 	and	w0, w1, #0x80000000
    9994:	b9004fa1 	str	w1, [x29,#76]
    9998:	2a170000 	orr	w0, w0, w23
    999c:	2a0103e2 	mov	w2, w1
    99a0:	885ffc86 	ldaxr	w6, [x4]
    99a4:	6b0200df 	cmp	w6, w2
    99a8:	54000061 	b.ne	99b4 <__pthread_mutex_trylock+0x380>
    99ac:	88087c80 	stxr	w8, w0, [x4]
    99b0:	35ffff88 	cbnz	w8, 99a0 <__pthread_mutex_trylock+0x36c>
    99b4:	54000040 	b.eq	99bc <__pthread_mutex_trylock+0x388>
    99b8:	b9004fa6 	str	w6, [x29,#76]
    99bc:	b9404fa0 	ldr	w0, [x29,#76]
    99c0:	6b00003f 	cmp	w1, w0
    99c4:	54000d80 	b.eq	9b74 <__pthread_mutex_trylock+0x540>
    99c8:	2a0003e1 	mov	w1, w0
    99cc:	12020013 	and	w19, w0, #0x40000000
    99d0:	17ffffb2 	b	9898 <__pthread_mutex_trylock+0x264>
    99d4:	b9004fbf 	str	wzr, [x29,#76]
    99d8:	52800020 	mov	w0, #0x1                   	// #1
    99dc:	885ffc81 	ldaxr	w1, [x4]
    99e0:	6b1f003f 	cmp	w1, wzr
    99e4:	54000061 	b.ne	99f0 <__pthread_mutex_trylock+0x3bc>
    99e8:	88027c80 	stxr	w2, w0, [x4]
    99ec:	35ffff82 	cbnz	w2, 99dc <__pthread_mutex_trylock+0x3a8>
    99f0:	54ffebe1 	b.ne	976c <__pthread_mutex_trylock+0x138>
    99f4:	b9400c81 	ldr	w1, [x4,#12]
    99f8:	52800013 	mov	w19, #0x0                   	// #0
    99fc:	b9000897 	str	w23, [x4,#8]
    9a00:	11000421 	add	w1, w1, #0x1
    9a04:	b9000480 	str	w0, [x4,#4]
    9a08:	b9000c81 	str	w1, [x4,#12]
    9a0c:	17ffff2a 	b	96b4 <__pthread_mutex_trylock+0x80>
    9a10:	340001e6 	cbz	w6, 9a4c <__pthread_mutex_trylock+0x418>
    9a14:	b9400881 	ldr	w1, [x4,#8]
    9a18:	321f77e0 	mov	w0, #0x7ffffffe            	// #2147483646
    9a1c:	6b00003f 	cmp	w1, w0
    9a20:	54001020 	b.eq	9c24 <__pthread_mutex_trylock+0x5f0>
    9a24:	aa0503e0 	mov	x0, x5
    9a28:	91008082 	add	x2, x4, #0x20
    9a2c:	b2400043 	orr	x3, x2, #0x1
    9a30:	f84e0c01 	ldr	x1, [x0,#224]!
    9a34:	927ff826 	and	x6, x1, #0xfffffffffffffffe
    9a38:	f81f80c2 	str	x2, [x6,#-8]
    9a3c:	f9001081 	str	x1, [x4,#32]
    9a40:	f9000c80 	str	x0, [x4,#24]
    9a44:	f90070a3 	str	x3, [x5,#224]
    9a48:	f90078bf 	str	xzr, [x5,#240]
    9a4c:	b9400c80 	ldr	w0, [x4,#12]
    9a50:	52800021 	mov	w1, #0x1                   	// #1
    9a54:	b9000897 	str	w23, [x4,#8]
    9a58:	52800013 	mov	w19, #0x0                   	// #0
    9a5c:	11000400 	add	w0, w0, #0x1
    9a60:	b9000481 	str	w1, [x4,#4]
    9a64:	b9000c80 	str	w0, [x4,#12]
    9a68:	17ffff13 	b	96b4 <__pthread_mutex_trylock+0x80>
    9a6c:	d2800101 	mov	x1, #0x8                   	// #8
    9a70:	350000c6 	cbnz	w6, 9a88 <__pthread_mutex_trylock+0x454>
    9a74:	b9401081 	ldr	w1, [x4,#16]
    9a78:	52801100 	mov	w0, #0x88                  	// #136
    9a7c:	12190021 	and	w1, w1, #0x80
    9a80:	4a000021 	eor	w1, w1, w0
    9a84:	93407c21 	sxtw	x1, w1
    9a88:	d2800002 	mov	x2, #0x0                   	// #0
    9a8c:	aa0403e0 	mov	x0, x4
    9a90:	aa0203e3 	mov	x3, x2
    9a94:	d2800c48 	mov	x8, #0x62                  	// #98
    9a98:	d4000001 	svc	#0x0
    9a9c:	31002c1f 	cmn	w0, #0xb
    9aa0:	540008c1 	b.ne	9bb8 <__pthread_mutex_trylock+0x584>
    9aa4:	3140041f 	cmn	w0, #0x1, lsl #12
    9aa8:	54000889 	b.ls	9bb8 <__pthread_mutex_trylock+0x584>
    9aac:	f90078a2 	str	x2, [x5,#240]
    9ab0:	52800213 	mov	w19, #0x10                  	// #16
    9ab4:	17ffff00 	b	96b4 <__pthread_mutex_trylock+0x80>
    9ab8:	12000442 	and	w2, w2, #0x3
    9abc:	7100085f 	cmp	w2, #0x2
    9ac0:	54000760 	b.eq	9bac <__pthread_mutex_trylock+0x578>
    9ac4:	7100045f 	cmp	w2, #0x1
    9ac8:	54ffe3a1 	b.ne	973c <__pthread_mutex_trylock+0x108>
    9acc:	f90078bf 	str	xzr, [x5,#240]
    9ad0:	b9400480 	ldr	w0, [x4,#4]
    9ad4:	3100041f 	cmn	w0, #0x1
    9ad8:	54ffde81 	b.ne	96a8 <__pthread_mutex_trylock+0x74>
    9adc:	52800173 	mov	w19, #0xb                   	// #11
    9ae0:	17fffef5 	b	96b4 <__pthread_mutex_trylock+0x80>
    9ae4:	12000442 	and	w2, w2, #0x3
    9ae8:	52800473 	mov	w19, #0x23                  	// #35
    9aec:	7100085f 	cmp	w2, #0x2
    9af0:	54ffde20 	b.eq	96b4 <__pthread_mutex_trylock+0x80>
    9af4:	7100045f 	cmp	w2, #0x1
    9af8:	54ffe7e1 	b.ne	97f4 <__pthread_mutex_trylock+0x1c0>
    9afc:	17fffee8 	b	969c <__pthread_mutex_trylock+0x68>
    9b00:	310006df 	cmn	w22, #0x1
    9b04:	528002d3 	mov	w19, #0x16                  	// #22
    9b08:	54ffdd60 	b.eq	96b4 <__pthread_mutex_trylock+0x80>
    9b0c:	12800001 	mov	w1, #0xffffffff            	// #-1
    9b10:	94002052 	bl	11c58 <__pthread_tpp_change_priority>
    9b14:	17fffee8 	b	96b4 <__pthread_mutex_trylock+0x80>
    9b18:	2a0003f3 	mov	w19, w0
    9b1c:	17fffee6 	b	96b4 <__pthread_mutex_trylock+0x80>
    9b20:	b9400ea0 	ldr	w0, [x21,#12]
    9b24:	52800021 	mov	w1, #0x1                   	// #1
    9b28:	b9000ab7 	str	w23, [x21,#8]
    9b2c:	52800013 	mov	w19, #0x0                   	// #0
    9b30:	11000400 	add	w0, w0, #0x1
    9b34:	b90006a1 	str	w1, [x21,#4]
    9b38:	b9000ea0 	str	w0, [x21,#12]
    9b3c:	17fffede 	b	96b4 <__pthread_mutex_trylock+0x80>
    9b40:	52800001 	mov	w1, #0x0                   	// #0
    9b44:	885f7c80 	ldxr	w0, [x4]
    9b48:	8802fc81 	stlxr	w2, w1, [x4]
    9b4c:	35ffffc2 	cbnz	w2, 9b44 <__pthread_mutex_trylock+0x510>
    9b50:	7100041f 	cmp	w0, #0x1
    9b54:	54ffeced 	b.le	98f0 <__pthread_mutex_trylock+0x2bc>
    9b58:	d2800021 	mov	x1, #0x1                   	// #1
    9b5c:	aa0403e0 	mov	x0, x4
    9b60:	aa0103e2 	mov	x2, x1
    9b64:	d2800003 	mov	x3, #0x0                   	// #0
    9b68:	d2800c48 	mov	x8, #0x62                  	// #98
    9b6c:	d4000001 	svc	#0x0
    9b70:	17ffff60 	b	98f0 <__pthread_mutex_trylock+0x2bc>
    9b74:	aa0503e0 	mov	x0, x5
    9b78:	52800021 	mov	w1, #0x1                   	// #1
    9b7c:	b9000481 	str	w1, [x4,#4]
    9b80:	12b00001 	mov	w1, #0x7fffffff            	// #2147483647
    9b84:	b9000881 	str	w1, [x4,#8]
    9b88:	52801053 	mov	w19, #0x82                  	// #130
    9b8c:	f84e0c01 	ldr	x1, [x0,#224]!
    9b90:	927ff822 	and	x2, x1, #0xfffffffffffffffe
    9b94:	f81f8047 	str	x7, [x2,#-8]
    9b98:	f9001081 	str	x1, [x4,#32]
    9b9c:	f9000c80 	str	x0, [x4,#24]
    9ba0:	f90070a7 	str	x7, [x5,#224]
    9ba4:	f90078bf 	str	xzr, [x5,#240]
    9ba8:	17fffec3 	b	96b4 <__pthread_mutex_trylock+0x80>
    9bac:	f90078bf 	str	xzr, [x5,#240]
    9bb0:	52800473 	mov	w19, #0x23                  	// #35
    9bb4:	17fffec0 	b	96b4 <__pthread_mutex_trylock+0x80>
    9bb8:	b9400080 	ldr	w0, [x4]
    9bbc:	36f7f2a0 	tbz	w0, #30, 9a10 <__pthread_mutex_trylock+0x3dc>
    9bc0:	b9004fa0 	str	w0, [x29,#76]
    9bc4:	12017801 	and	w1, w0, #0xbfffffff
    9bc8:	885ffc82 	ldaxr	w2, [x4]
    9bcc:	6b00005f 	cmp	w2, w0
    9bd0:	54000061 	b.ne	9bdc <__pthread_mutex_trylock+0x5a8>
    9bd4:	88037c81 	stxr	w3, w1, [x4]
    9bd8:	35ffff83 	cbnz	w3, 9bc8 <__pthread_mutex_trylock+0x594>
    9bdc:	54000060 	b.eq	9be8 <__pthread_mutex_trylock+0x5b4>
    9be0:	b9400080 	ldr	w0, [x4]
    9be4:	17fffff7 	b	9bc0 <__pthread_mutex_trylock+0x58c>
    9be8:	aa0503e0 	mov	x0, x5
    9bec:	52800021 	mov	w1, #0x1                   	// #1
    9bf0:	b9000481 	str	w1, [x4,#4]
    9bf4:	12b00001 	mov	w1, #0x7fffffff            	// #2147483647
    9bf8:	b9000881 	str	w1, [x4,#8]
    9bfc:	91008081 	add	x1, x4, #0x20
    9c00:	52801053 	mov	w19, #0x82                  	// #130
    9c04:	f84e0c02 	ldr	x2, [x0,#224]!
    9c08:	927ff843 	and	x3, x2, #0xfffffffffffffffe
    9c0c:	f81f8061 	str	x1, [x3,#-8]
    9c10:	f9001082 	str	x2, [x4,#32]
    9c14:	f9000c80 	str	x0, [x4,#24]
    9c18:	f90070a1 	str	x1, [x5,#224]
    9c1c:	f90078bf 	str	xzr, [x5,#240]
    9c20:	17fffea5 	b	96b4 <__pthread_mutex_trylock+0x80>
    9c24:	d2800002 	mov	x2, #0x0                   	// #0
    9c28:	b900049f 	str	wzr, [x4,#4]
    9c2c:	aa0403e0 	mov	x0, x4
    9c30:	d28000e1 	mov	x1, #0x7                   	// #7
    9c34:	aa0203e3 	mov	x3, x2
    9c38:	d2800c48 	mov	x8, #0x62                  	// #98
    9c3c:	d4000001 	svc	#0x0
    9c40:	52801073 	mov	w19, #0x83                  	// #131
    9c44:	f90078a2 	str	x2, [x5,#240]
    9c48:	17fffe9b 	b	96b4 <__pthread_mutex_trylock+0x80>

0000000000009c4c <pthread_mutex_timedlock>:
    9c4c:	a9b77bfd 	stp	x29, x30, [sp,#-144]!
    9c50:	52802fe2 	mov	w2, #0x17f                 	// #383
    9c54:	910003fd 	mov	x29, sp
    9c58:	a90153f3 	stp	x19, x20, [sp,#16]
    9c5c:	a9025bf5 	stp	x21, x22, [sp,#32]
    9c60:	a90363f7 	stp	x23, x24, [sp,#48]
    9c64:	a9046bf9 	stp	x25, x26, [sp,#64]
    9c68:	a90573fb 	stp	x27, x28, [sp,#80]
    9c6c:	fd0033e8 	str	d8, [sp,#96]
    9c70:	d53bd054 	mrs	x20, tpidr_el0
    9c74:	b9401003 	ldr	w3, [x0,#16]
    9c78:	d11bc294 	sub	x20, x20, #0x6f0
    9c7c:	aa0003f3 	mov	x19, x0
    9c80:	aa0103f5 	mov	x21, x1
    9c84:	0a020062 	and	w2, w3, w2
    9c88:	71008c5f 	cmp	w2, #0x23
    9c8c:	b940d296 	ldr	w22, [x20,#208]
    9c90:	54000788 	b.hi	9d80 <pthread_mutex_timedlock+0x134>
    9c94:	7100805f 	cmp	w2, #0x20
    9c98:	54000822 	b.cs	9d9c <pthread_mutex_timedlock+0x150>
    9c9c:	7100085f 	cmp	w2, #0x2
    9ca0:	54001560 	b.eq	9f4c <pthread_mutex_timedlock+0x300>
    9ca4:	54000f69 	b.ls	9e90 <pthread_mutex_timedlock+0x244>
    9ca8:	71000c5f 	cmp	w2, #0x3
    9cac:	540015a0 	b.eq	9f60 <pthread_mutex_timedlock+0x314>
    9cb0:	51004042 	sub	w2, w2, #0x10
    9cb4:	71000c5f 	cmp	w2, #0x3
    9cb8:	54002ce8 	b.hi	a254 <pthread_mutex_timedlock+0x608>
    9cbc:	91008018 	add	x24, x0, #0x20
    9cc0:	f9007a98 	str	x24, [x20,#240]
    9cc4:	321f77f7 	mov	w23, #0x7ffffffe            	// #2147483646
    9cc8:	b9400002 	ldr	w2, [x0]
    9ccc:	12020040 	and	w0, w2, #0x40000000
    9cd0:	35000360 	cbnz	w0, 9d3c <pthread_mutex_timedlock+0xf0>
    9cd4:	12007442 	and	w2, w2, #0x3fffffff
    9cd8:	6b0202df 	cmp	w22, w2
    9cdc:	54001a60 	b.eq	a028 <pthread_mutex_timedlock+0x3dc>
    9ce0:	b90083bf 	str	wzr, [x29,#128]
    9ce4:	885ffe63 	ldaxr	w3, [x19]
    9ce8:	6b1f007f 	cmp	w3, wzr
    9cec:	54000061 	b.ne	9cf8 <pthread_mutex_timedlock+0xac>
    9cf0:	88007e76 	stxr	w0, w22, [x19]
    9cf4:	35ffff80 	cbnz	w0, 9ce4 <pthread_mutex_timedlock+0x98>
    9cf8:	54001b20 	b.eq	a05c <pthread_mutex_timedlock+0x410>
    9cfc:	52801002 	mov	w2, #0x80                  	// #128
    9d00:	aa1303e0 	mov	x0, x19
    9d04:	aa1503e1 	mov	x1, x21
    9d08:	b90083a3 	str	w3, [x29,#128]
    9d0c:	9400177b 	bl	faf8 <__lll_robust_timedlock_wait>
    9d10:	2a0003e2 	mov	w2, w0
    9d14:	b9400a60 	ldr	w0, [x19,#8]
    9d18:	6b17001f 	cmp	w0, w23
    9d1c:	54002ae0 	b.eq	a278 <pthread_mutex_timedlock+0x62c>
    9d20:	7100585f 	cmp	w2, #0x16
    9d24:	54003760 	b.eq	a410 <pthread_mutex_timedlock+0x7c4>
    9d28:	7101b85f 	cmp	w2, #0x6e
    9d2c:	54003720 	b.eq	a410 <pthread_mutex_timedlock+0x7c4>
    9d30:	12020040 	and	w0, w2, #0x40000000
    9d34:	36f019e2 	tbz	w2, #30, a070 <pthread_mutex_timedlock+0x424>
    9d38:	34fffce0 	cbz	w0, 9cd4 <pthread_mutex_timedlock+0x88>
    9d3c:	12010040 	and	w0, w2, #0x80000000
    9d40:	b90083a2 	str	w2, [x29,#128]
    9d44:	2a160000 	orr	w0, w0, w22
    9d48:	2a0203e1 	mov	w1, w2
    9d4c:	885ffe63 	ldaxr	w3, [x19]
    9d50:	6b01007f 	cmp	w3, w1
    9d54:	54000061 	b.ne	9d60 <pthread_mutex_timedlock+0x114>
    9d58:	88047e60 	stxr	w4, w0, [x19]
    9d5c:	35ffff84 	cbnz	w4, 9d4c <pthread_mutex_timedlock+0x100>
    9d60:	54000040 	b.eq	9d68 <pthread_mutex_timedlock+0x11c>
    9d64:	b90083a3 	str	w3, [x29,#128]
    9d68:	b94083a0 	ldr	w0, [x29,#128]
    9d6c:	6b00005f 	cmp	w2, w0
    9d70:	54003880 	b.eq	a480 <pthread_mutex_timedlock+0x834>
    9d74:	2a0003e2 	mov	w2, w0
    9d78:	12020000 	and	w0, w0, #0x40000000
    9d7c:	17ffffd5 	b	9cd0 <pthread_mutex_timedlock+0x84>
    9d80:	71010c5f 	cmp	w2, #0x43
    9d84:	54000b28 	b.hi	9ee8 <pthread_mutex_timedlock+0x29c>
    9d88:	7101005f 	cmp	w2, #0x40
    9d8c:	54001882 	b.cs	a09c <pthread_mutex_timedlock+0x450>
    9d90:	5100c042 	sub	w2, w2, #0x30
    9d94:	71000c5f 	cmp	w2, #0x3
    9d98:	540025e8 	b.hi	a254 <pthread_mutex_timedlock+0x608>
    9d9c:	121c0064 	and	w4, w3, #0x10
    9da0:	36200083 	tbz	w3, #4, 9db0 <pthread_mutex_timedlock+0x164>
    9da4:	91008260 	add	x0, x19, #0x20
    9da8:	b2400000 	orr	x0, x0, #0x1
    9dac:	f9007a80 	str	x0, [x20,#240]
    9db0:	b9400260 	ldr	w0, [x19]
    9db4:	12007400 	and	w0, w0, #0x3fffffff
    9db8:	6b0002df 	cmp	w22, w0
    9dbc:	54002d40 	b.eq	a364 <pthread_mutex_timedlock+0x718>
    9dc0:	b90083bf 	str	wzr, [x29,#128]
    9dc4:	885ffe60 	ldaxr	w0, [x19]
    9dc8:	6b1f001f 	cmp	w0, wzr
    9dcc:	54000061 	b.ne	9dd8 <pthread_mutex_timedlock+0x18c>
    9dd0:	88017e76 	stxr	w1, w22, [x19]
    9dd4:	35ffff81 	cbnz	w1, 9dc4 <pthread_mutex_timedlock+0x178>
    9dd8:	54000040 	b.eq	9de0 <pthread_mutex_timedlock+0x194>
    9ddc:	b90083a0 	str	w0, [x29,#128]
    9de0:	b94083a0 	ldr	w0, [x29,#128]
    9de4:	340025e0 	cbz	w0, a2a0 <pthread_mutex_timedlock+0x654>
    9de8:	d28000c1 	mov	x1, #0x6                   	// #6
    9dec:	350000c4 	cbnz	w4, 9e04 <pthread_mutex_timedlock+0x1b8>
    9df0:	b9401261 	ldr	w1, [x19,#16]
    9df4:	528010c0 	mov	w0, #0x86                  	// #134
    9df8:	12190021 	and	w1, w1, #0x80
    9dfc:	4a000021 	eor	w1, w1, w0
    9e00:	93407c21 	sxtw	x1, w1
    9e04:	aa1303e0 	mov	x0, x19
    9e08:	d2800022 	mov	x2, #0x1                   	// #1
    9e0c:	aa1503e3 	mov	x3, x21
    9e10:	d2800c48 	mov	x8, #0x62                  	// #98
    9e14:	d4000001 	svc	#0x0
    9e18:	3140041f 	cmn	w0, #0x1, lsl #12
    9e1c:	aa0003e1 	mov	x1, x0
    9e20:	54002849 	b.ls	a328 <pthread_mutex_timedlock+0x6dc>
    9e24:	3101b81f 	cmn	w0, #0x6e
    9e28:	52800dc0 	mov	w0, #0x6e                  	// #110
    9e2c:	540004e0 	b.eq	9ec8 <pthread_mutex_timedlock+0x27c>
    9e30:	121a7820 	and	w0, w1, #0xffffffdf
    9e34:	31008c1f 	cmn	w0, #0x23
    9e38:	54003401 	b.ne	a4b8 <pthread_mutex_timedlock+0x86c>
    9e3c:	d2800000 	mov	x0, #0x0                   	// #0
    9e40:	910203a1 	add	x1, x29, #0x80
    9e44:	d2800e28 	mov	x8, #0x71                  	// #113
    9e48:	d4000001 	svc	#0x0
    9e4c:	f94002a0 	ldr	x0, [x21]
    9e50:	f94006a1 	ldr	x1, [x21,#8]
    9e54:	f94047a2 	ldr	x2, [x29,#136]
    9e58:	f94043a3 	ldr	x3, [x29,#128]
    9e5c:	eb020021 	subs	x1, x1, x2
    9e60:	cb030000 	sub	x0, x0, x3
    9e64:	f9003ba0 	str	x0, [x29,#112]
    9e68:	540034c4 	b.mi	a500 <pthread_mutex_timedlock+0x8b4>
    9e6c:	f9003fa1 	str	x1, [x29,#120]
    9e70:	b7f800c0 	tbnz	x0, #63, 9e88 <pthread_mutex_timedlock+0x23c>
    9e74:	9101c3b3 	add	x19, x29, #0x70
    9e78:	aa1303e0 	mov	x0, x19
    9e7c:	aa1303e1 	mov	x1, x19
    9e80:	940019bc 	bl	10570 <__nanosleep_nocancel>
    9e84:	35ffffa0 	cbnz	w0, 9e78 <pthread_mutex_timedlock+0x22c>
    9e88:	52800dc0 	mov	w0, #0x6e                  	// #110
    9e8c:	1400000f 	b	9ec8 <pthread_mutex_timedlock+0x27c>
    9e90:	35000b42 	cbnz	w2, 9ff8 <pthread_mutex_timedlock+0x3ac>
    9e94:	b90083bf 	str	wzr, [x29,#128]
    9e98:	52800020 	mov	w0, #0x1                   	// #1
    9e9c:	885ffe63 	ldaxr	w3, [x19]
    9ea0:	6b1f007f 	cmp	w3, wzr
    9ea4:	54000061 	b.ne	9eb0 <pthread_mutex_timedlock+0x264>
    9ea8:	88017e60 	stxr	w1, w0, [x19]
    9eac:	35ffff81 	cbnz	w1, 9e9c <pthread_mutex_timedlock+0x250>
    9eb0:	540003a1 	b.ne	9f24 <pthread_mutex_timedlock+0x2d8>
    9eb4:	b9400e61 	ldr	w1, [x19,#12]
    9eb8:	52800000 	mov	w0, #0x0                   	// #0
    9ebc:	b9000a76 	str	w22, [x19,#8]
    9ec0:	11000421 	add	w1, w1, #0x1
    9ec4:	b9000e61 	str	w1, [x19,#12]
    9ec8:	a94153f3 	ldp	x19, x20, [sp,#16]
    9ecc:	a9425bf5 	ldp	x21, x22, [sp,#32]
    9ed0:	a94363f7 	ldp	x23, x24, [sp,#48]
    9ed4:	a9446bf9 	ldp	x25, x26, [sp,#64]
    9ed8:	a94573fb 	ldp	x27, x28, [sp,#80]
    9edc:	fd4033e8 	ldr	d8, [sp,#96]
    9ee0:	a8c97bfd 	ldp	x29, x30, [sp],#144
    9ee4:	d65f03c0 	ret
    9ee8:	7104005f 	cmp	w2, #0x100
    9eec:	54001b01 	b.ne	a24c <pthread_mutex_timedlock+0x600>
    9ef0:	b90083bf 	str	wzr, [x29,#128]
    9ef4:	52800022 	mov	w2, #0x1                   	// #1
    9ef8:	885ffe63 	ldaxr	w3, [x19]
    9efc:	6b1f007f 	cmp	w3, wzr
    9f00:	54000061 	b.ne	9f0c <pthread_mutex_timedlock+0x2c0>
    9f04:	88047e62 	stxr	w4, w2, [x19]
    9f08:	35ffff84 	cbnz	w4, 9ef8 <pthread_mutex_timedlock+0x2ac>
    9f0c:	540018e0 	b.eq	a228 <pthread_mutex_timedlock+0x5dc>
    9f10:	b9401262 	ldr	w2, [x19,#16]
    9f14:	b90083a3 	str	w3, [x29,#128]
    9f18:	12190042 	and	w2, w2, #0x80
    9f1c:	94001645 	bl	f830 <__lll_timedlock_wait>
    9f20:	17ffffea 	b	9ec8 <pthread_mutex_timedlock+0x27c>
    9f24:	b9401262 	ldr	w2, [x19,#16]
    9f28:	aa1303e0 	mov	x0, x19
    9f2c:	aa1503e1 	mov	x1, x21
    9f30:	b90083a3 	str	w3, [x29,#128]
    9f34:	12190042 	and	w2, w2, #0x80
    9f38:	9400163e 	bl	f830 <__lll_timedlock_wait>
    9f3c:	2a0003e2 	mov	w2, w0
    9f40:	2a0203e0 	mov	w0, w2
    9f44:	35fffc22 	cbnz	w2, 9ec8 <pthread_mutex_timedlock+0x27c>
    9f48:	17ffffdb 	b	9eb4 <pthread_mutex_timedlock+0x268>
    9f4c:	b9400800 	ldr	w0, [x0,#8]
    9f50:	6b0002df 	cmp	w22, w0
    9f54:	54fffa01 	b.ne	9e94 <pthread_mutex_timedlock+0x248>
    9f58:	52800460 	mov	w0, #0x23                  	// #35
    9f5c:	17ffffdb 	b	9ec8 <pthread_mutex_timedlock+0x27c>
    9f60:	f0000140 	adrp	x0, 34000 <__GI___pthread_keys+0x3d78>
    9f64:	b9432c00 	ldr	w0, [x0,#812]
    9f68:	34fff960 	cbz	w0, 9e94 <pthread_mutex_timedlock+0x248>
    9f6c:	b90083bf 	str	wzr, [x29,#128]
    9f70:	52800022 	mov	w2, #0x1                   	// #1
    9f74:	885ffe60 	ldaxr	w0, [x19]
    9f78:	6b1f001f 	cmp	w0, wzr
    9f7c:	54000061 	b.ne	9f88 <pthread_mutex_timedlock+0x33c>
    9f80:	88017e62 	stxr	w1, w2, [x19]
    9f84:	35ffff81 	cbnz	w1, 9f74 <pthread_mutex_timedlock+0x328>
    9f88:	1a9f17f4 	cset	w20, eq
    9f8c:	35fff954 	cbnz	w20, 9eb4 <pthread_mutex_timedlock+0x268>
    9f90:	b9401661 	ldr	w1, [x19,#20]
    9f94:	52800c80 	mov	w0, #0x64                  	// #100
    9f98:	11001421 	add	w1, w1, #0x5
    9f9c:	531f7821 	lsl	w1, w1, #1
    9fa0:	7101903f 	cmp	w1, #0x64
    9fa4:	1a80d021 	csel	w1, w1, w0, le
    9fa8:	11000694 	add	w20, w20, #0x1
    9fac:	b90083bf 	str	wzr, [x29,#128]
    9fb0:	51000680 	sub	w0, w20, #0x1
    9fb4:	6b01001f 	cmp	w0, w1
    9fb8:	5400200a 	b.ge	a3b8 <pthread_mutex_timedlock+0x76c>
    9fbc:	885ffe60 	ldaxr	w0, [x19]
    9fc0:	6b1f001f 	cmp	w0, wzr
    9fc4:	54000061 	b.ne	9fd0 <pthread_mutex_timedlock+0x384>
    9fc8:	88037e62 	stxr	w3, w2, [x19]
    9fcc:	35ffff83 	cbnz	w3, 9fbc <pthread_mutex_timedlock+0x370>
    9fd0:	54fffec1 	b.ne	9fa8 <pthread_mutex_timedlock+0x35c>
    9fd4:	52800002 	mov	w2, #0x0                   	// #0
    9fd8:	b9401661 	ldr	w1, [x19,#20]
    9fdc:	4b010294 	sub	w20, w20, w1
    9fe0:	11001e80 	add	w0, w20, #0x7
    9fe4:	6b1f029f 	cmp	w20, wzr
    9fe8:	1a94b014 	csel	w20, w0, w20, lt
    9fec:	0b940c34 	add	w20, w1, w20, asr #3
    9ff0:	b9001674 	str	w20, [x19,#20]
    9ff4:	17ffffd3 	b	9f40 <pthread_mutex_timedlock+0x2f4>
    9ff8:	7100045f 	cmp	w2, #0x1
    9ffc:	540012c1 	b.ne	a254 <pthread_mutex_timedlock+0x608>
    a000:	b9400a60 	ldr	w0, [x19,#8]
    a004:	6b16001f 	cmp	w0, w22
    a008:	54001701 	b.ne	a2e8 <pthread_mutex_timedlock+0x69c>
    a00c:	b9400660 	ldr	w0, [x19,#4]
    a010:	3100041f 	cmn	w0, #0x1
    a014:	54001ba0 	b.eq	a388 <pthread_mutex_timedlock+0x73c>
    a018:	11000401 	add	w1, w0, #0x1
    a01c:	52800000 	mov	w0, #0x0                   	// #0
    a020:	b9000661 	str	w1, [x19,#4]
    a024:	17ffffa9 	b	9ec8 <pthread_mutex_timedlock+0x27c>
    a028:	b9401261 	ldr	w1, [x19,#16]
    a02c:	12001821 	and	w1, w1, #0x7f
    a030:	7100483f 	cmp	w1, #0x12
    a034:	54002200 	b.eq	a474 <pthread_mutex_timedlock+0x828>
    a038:	7100443f 	cmp	w1, #0x11
    a03c:	54ffe521 	b.ne	9ce0 <pthread_mutex_timedlock+0x94>
    a040:	f9007a9f 	str	xzr, [x20,#240]
    a044:	b9400661 	ldr	w1, [x19,#4]
    a048:	3100043f 	cmn	w1, #0x1
    a04c:	540019e0 	b.eq	a388 <pthread_mutex_timedlock+0x73c>
    a050:	11000421 	add	w1, w1, #0x1
    a054:	b9000661 	str	w1, [x19,#4]
    a058:	17ffff9c 	b	9ec8 <pthread_mutex_timedlock+0x27c>
    a05c:	b9400a61 	ldr	w1, [x19,#8]
    a060:	321f77e0 	mov	w0, #0x7ffffffe            	// #2147483646
    a064:	6b00003f 	cmp	w1, w0
    a068:	54001080 	b.eq	a278 <pthread_mutex_timedlock+0x62c>
    a06c:	52800002 	mov	w2, #0x0                   	// #0
    a070:	aa1403e0 	mov	x0, x20
    a074:	52800021 	mov	w1, #0x1                   	// #1
    a078:	b9000661 	str	w1, [x19,#4]
    a07c:	f84e0c01 	ldr	x1, [x0,#224]!
    a080:	927ff823 	and	x3, x1, #0xfffffffffffffffe
    a084:	f81f8078 	str	x24, [x3,#-8]
    a088:	f9001261 	str	x1, [x19,#32]
    a08c:	f9000e60 	str	x0, [x19,#24]
    a090:	f9007298 	str	x24, [x20,#224]
    a094:	f9007a9f 	str	xzr, [x20,#240]
    a098:	17ffffaa 	b	9f40 <pthread_mutex_timedlock+0x2f4>
    a09c:	b9400800 	ldr	w0, [x0,#8]
    a0a0:	b9400261 	ldr	w1, [x19]
    a0a4:	6b16001f 	cmp	w0, w22
    a0a8:	54001a60 	b.eq	a3f4 <pthread_mutex_timedlock+0x7a8>
    a0ac:	12800014 	mov	w20, #0xffffffff            	// #-1
    a0b0:	9101c3b8 	add	x24, x29, #0x70
    a0b4:	53137c20 	lsr	w0, w1, #19
    a0b8:	2a0003f7 	mov	w23, w0
    a0bc:	1e270008 	fmov	s8, w0
    a0c0:	94001fa6 	bl	11f58 <__pthread_current_priority>
    a0c4:	6b0002ff 	cmp	w23, w0
    a0c8:	54001fcb 	b.lt	a4c0 <pthread_mutex_timedlock+0x874>
    a0cc:	2a1403e0 	mov	w0, w20
    a0d0:	2a1703e1 	mov	w1, w23
    a0d4:	94001ee1 	bl	11c58 <__pthread_tpp_change_priority>
    a0d8:	35ffef80 	cbnz	w0, 9ec8 <pthread_mutex_timedlock+0x27c>
    a0dc:	910243bc 	add	x28, x29, #0x90
    a0e0:	530d32f4 	lsl	w20, w23, #19
    a0e4:	32000297 	orr	w23, w20, #0x1
    a0e8:	2a1403e0 	mov	w0, w20
    a0ec:	b81f0f94 	str	w20, [x28,#-16]!
    a0f0:	885ffe61 	ldaxr	w1, [x19]
    a0f4:	6b00003f 	cmp	w1, w0
    a0f8:	54000061 	b.ne	a104 <pthread_mutex_timedlock+0x4b8>
    a0fc:	88027e77 	stxr	w2, w23, [x19]
    a100:	35ffff82 	cbnz	w2, a0f0 <pthread_mutex_timedlock+0x4a4>
    a104:	54000040 	b.eq	a10c <pthread_mutex_timedlock+0x4c0>
    a108:	b90083a1 	str	w1, [x29,#128]
    a10c:	b94083a0 	ldr	w0, [x29,#128]
    a110:	6b00029f 	cmp	w20, w0
    a114:	54000780 	b.eq	a204 <pthread_mutex_timedlock+0x5b8>
    a118:	321f029b 	orr	w27, w20, #0x2
    a11c:	910203ba 	add	x26, x29, #0x80
    a120:	93407f79 	sxtw	x25, w27
    a124:	b90083b7 	str	w23, [x29,#128]
    a128:	b9400380 	ldr	w0, [x28]
    a12c:	885ffe61 	ldaxr	w1, [x19]
    a130:	6b00003f 	cmp	w1, w0
    a134:	54000061 	b.ne	a140 <pthread_mutex_timedlock+0x4f4>
    a138:	88027e7b 	stxr	w2, w27, [x19]
    a13c:	35ffff82 	cbnz	w2, a12c <pthread_mutex_timedlock+0x4e0>
    a140:	54000040 	b.eq	a148 <pthread_mutex_timedlock+0x4fc>
    a144:	b9000381 	str	w1, [x28]
    a148:	b94083a1 	ldr	w1, [x29,#128]
    a14c:	120d3020 	and	w0, w1, #0xfff80000
    a150:	6b00029f 	cmp	w20, w0
    a154:	540011e1 	b.ne	a390 <pthread_mutex_timedlock+0x744>
    a158:	6b01029f 	cmp	w20, w1
    a15c:	540003c0 	b.eq	a1d4 <pthread_mutex_timedlock+0x588>
    a160:	f94006a1 	ldr	x1, [x21,#8]
    a164:	d2993fe0 	mov	x0, #0xc9ff                	// #51711
    a168:	f2a77340 	movk	x0, #0x3b9a, lsl #16
    a16c:	eb00003f 	cmp	x1, x0
    a170:	54001148 	b.hi	a398 <pthread_mutex_timedlock+0x74c>
    a174:	d2800001 	mov	x1, #0x0                   	// #0
    a178:	aa1803e0 	mov	x0, x24
    a17c:	97ffeb91 	bl	4fc0 <__gettimeofday@plt>
    a180:	f9403fa7 	ldr	x7, [x29,#120]
    a184:	f94002a6 	ldr	x6, [x21]
    a188:	f94006a0 	ldr	x0, [x21,#8]
    a18c:	cb0714e5 	sub	x5, x7, x7, lsl #5
    a190:	f9403ba1 	ldr	x1, [x29,#112]
    a194:	d37ef4a5 	lsl	x5, x5, #2
    a198:	cb0700a4 	sub	x4, x5, x7
    a19c:	cb0100c6 	sub	x6, x6, x1
    a1a0:	f90043a6 	str	x6, [x29,#128]
    a1a4:	ab040c04 	adds	x4, x0, x4, lsl #3
    a1a8:	54000344 	b.mi	a210 <pthread_mutex_timedlock+0x5c4>
    a1ac:	f90047a4 	str	x4, [x29,#136]
    a1b0:	b7f81006 	tbnz	x6, #63, a3b0 <pthread_mutex_timedlock+0x764>
    a1b4:	b9401261 	ldr	w1, [x19,#16]
    a1b8:	aa1303e0 	mov	x0, x19
    a1bc:	aa1903e2 	mov	x2, x25
    a1c0:	aa1a03e3 	mov	x3, x26
    a1c4:	2a2103e1 	mvn	w1, w1
    a1c8:	d2800c48 	mov	x8, #0x62                  	// #98
    a1cc:	92790021 	and	x1, x1, #0x80
    a1d0:	d4000001 	svc	#0x0
    a1d4:	b90083b4 	str	w20, [x29,#128]
    a1d8:	b9400380 	ldr	w0, [x28]
    a1dc:	885ffe61 	ldaxr	w1, [x19]
    a1e0:	6b00003f 	cmp	w1, w0
    a1e4:	54000061 	b.ne	a1f0 <pthread_mutex_timedlock+0x5a4>
    a1e8:	88027e7b 	stxr	w2, w27, [x19]
    a1ec:	35ffff82 	cbnz	w2, a1dc <pthread_mutex_timedlock+0x590>
    a1f0:	54000040 	b.eq	a1f8 <pthread_mutex_timedlock+0x5ac>
    a1f4:	b9000381 	str	w1, [x28]
    a1f8:	b94083a0 	ldr	w0, [x29,#128]
    a1fc:	6b00029f 	cmp	w20, w0
    a200:	54fff921 	b.ne	a124 <pthread_mutex_timedlock+0x4d8>
    a204:	52800020 	mov	w0, #0x1                   	// #1
    a208:	b9000660 	str	w0, [x19,#4]
    a20c:	17ffff2a 	b	9eb4 <pthread_mutex_timedlock+0x268>
    a210:	d2994000 	mov	x0, #0xca00                	// #51712
    a214:	d10004c6 	sub	x6, x6, #0x1
    a218:	f2a77340 	movk	x0, #0x3b9a, lsl #16
    a21c:	f90043a6 	str	x6, [x29,#128]
    a220:	8b000084 	add	x4, x4, x0
    a224:	17ffffe2 	b	a1ac <pthread_mutex_timedlock+0x560>
    a228:	52800000 	mov	w0, #0x0                   	// #0
    a22c:	a94153f3 	ldp	x19, x20, [sp,#16]
    a230:	a9425bf5 	ldp	x21, x22, [sp,#32]
    a234:	a94363f7 	ldp	x23, x24, [sp,#48]
    a238:	a9446bf9 	ldp	x25, x26, [sp,#64]
    a23c:	a94573fb 	ldp	x27, x28, [sp,#80]
    a240:	fd4033e8 	ldr	d8, [sp,#96]
    a244:	a8c97bfd 	ldp	x29, x30, [sp],#144
    a248:	d65f03c0 	ret
    a24c:	7104045f 	cmp	w2, #0x101
    a250:	54ffed80 	b.eq	a000 <pthread_mutex_timedlock+0x3b4>
    a254:	528002c0 	mov	w0, #0x16                  	// #22
    a258:	a94153f3 	ldp	x19, x20, [sp,#16]
    a25c:	a9425bf5 	ldp	x21, x22, [sp,#32]
    a260:	a94363f7 	ldp	x23, x24, [sp,#48]
    a264:	a9446bf9 	ldp	x25, x26, [sp,#64]
    a268:	a94573fb 	ldp	x27, x28, [sp,#80]
    a26c:	fd4033e8 	ldr	d8, [sp,#96]
    a270:	a8c97bfd 	ldp	x29, x30, [sp],#144
    a274:	d65f03c0 	ret
    a278:	b900067f 	str	wzr, [x19,#4]
    a27c:	52800001 	mov	w1, #0x0                   	// #0
    a280:	885f7e60 	ldxr	w0, [x19]
    a284:	8802fe61 	stlxr	w2, w1, [x19]
    a288:	35ffffc2 	cbnz	w2, a280 <pthread_mutex_timedlock+0x634>
    a28c:	7100041f 	cmp	w0, #0x1
    a290:	54000e4c 	b.gt	a458 <pthread_mutex_timedlock+0x80c>
    a294:	f9007a9f 	str	xzr, [x20,#240]
    a298:	52801060 	mov	w0, #0x83                  	// #131
    a29c:	17ffff0b 	b	9ec8 <pthread_mutex_timedlock+0x27c>
    a2a0:	34fffb24 	cbz	w4, a204 <pthread_mutex_timedlock+0x5b8>
    a2a4:	b9400a61 	ldr	w1, [x19,#8]
    a2a8:	321f77e0 	mov	w0, #0x7ffffffe            	// #2147483646
    a2ac:	6b00003f 	cmp	w1, w0
    a2b0:	54001140 	b.eq	a4d8 <pthread_mutex_timedlock+0x88c>
    a2b4:	aa1403e0 	mov	x0, x20
    a2b8:	52800021 	mov	w1, #0x1                   	// #1
    a2bc:	b9000661 	str	w1, [x19,#4]
    a2c0:	91008262 	add	x2, x19, #0x20
    a2c4:	b2400043 	orr	x3, x2, #0x1
    a2c8:	f84e0c01 	ldr	x1, [x0,#224]!
    a2cc:	927ff824 	and	x4, x1, #0xfffffffffffffffe
    a2d0:	f81f8082 	str	x2, [x4,#-8]
    a2d4:	f9001261 	str	x1, [x19,#32]
    a2d8:	f9000e60 	str	x0, [x19,#24]
    a2dc:	f9007283 	str	x3, [x20,#224]
    a2e0:	f9007a9f 	str	xzr, [x20,#240]
    a2e4:	17fffef4 	b	9eb4 <pthread_mutex_timedlock+0x268>
    a2e8:	b90083bf 	str	wzr, [x29,#128]
    a2ec:	52800020 	mov	w0, #0x1                   	// #1
    a2f0:	885ffe63 	ldaxr	w3, [x19]
    a2f4:	6b1f007f 	cmp	w3, wzr
    a2f8:	54000061 	b.ne	a304 <pthread_mutex_timedlock+0x6b8>
    a2fc:	88017e60 	stxr	w1, w0, [x19]
    a300:	35ffff81 	cbnz	w1, a2f0 <pthread_mutex_timedlock+0x6a4>
    a304:	54fff800 	b.eq	a204 <pthread_mutex_timedlock+0x5b8>
    a308:	b9401262 	ldr	w2, [x19,#16]
    a30c:	aa1303e0 	mov	x0, x19
    a310:	aa1503e1 	mov	x1, x21
    a314:	b90083a3 	str	w3, [x29,#128]
    a318:	12190042 	and	w2, w2, #0x80
    a31c:	94001545 	bl	f830 <__lll_timedlock_wait>
    a320:	35ffdd40 	cbnz	w0, 9ec8 <pthread_mutex_timedlock+0x27c>
    a324:	17ffffb8 	b	a204 <pthread_mutex_timedlock+0x5b8>
    a328:	b9400260 	ldr	w0, [x19]
    a32c:	36f7fba0 	tbz	w0, #30, a2a0 <pthread_mutex_timedlock+0x654>
    a330:	910203bc 	add	x28, x29, #0x80
    a334:	b90083a0 	str	w0, [x29,#128]
    a338:	12017800 	and	w0, w0, #0xbfffffff
    a33c:	b9400381 	ldr	w1, [x28]
    a340:	885ffe62 	ldaxr	w2, [x19]
    a344:	6b01005f 	cmp	w2, w1
    a348:	54000061 	b.ne	a354 <pthread_mutex_timedlock+0x708>
    a34c:	88037e60 	stxr	w3, w0, [x19]
    a350:	35ffff83 	cbnz	w3, a340 <pthread_mutex_timedlock+0x6f4>
    a354:	54000620 	b.eq	a418 <pthread_mutex_timedlock+0x7cc>
    a358:	b9000382 	str	w2, [x28]
    a35c:	b9400260 	ldr	w0, [x19]
    a360:	17fffff5 	b	a334 <pthread_mutex_timedlock+0x6e8>
    a364:	12000463 	and	w3, w3, #0x3
    a368:	7100087f 	cmp	w3, #0x2
    a36c:	54000840 	b.eq	a474 <pthread_mutex_timedlock+0x828>
    a370:	7100047f 	cmp	w3, #0x1
    a374:	54ffd261 	b.ne	9dc0 <pthread_mutex_timedlock+0x174>
    a378:	f9007a9f 	str	xzr, [x20,#240]
    a37c:	b9400660 	ldr	w0, [x19,#4]
    a380:	3100041f 	cmn	w0, #0x1
    a384:	54ffe4a1 	b.ne	a018 <pthread_mutex_timedlock+0x3cc>
    a388:	52800160 	mov	w0, #0xb                   	// #11
    a38c:	17fffecf 	b	9ec8 <pthread_mutex_timedlock+0x27c>
    a390:	1e260114 	fmov	w20, s8
    a394:	17ffff48 	b	a0b4 <pthread_mutex_timedlock+0x468>
    a398:	528002d3 	mov	w19, #0x16                  	// #22
    a39c:	1e260100 	fmov	w0, s8
    a3a0:	12800001 	mov	w1, #0xffffffff            	// #-1
    a3a4:	94001e2d 	bl	11c58 <__pthread_tpp_change_priority>
    a3a8:	2a1303e0 	mov	w0, w19
    a3ac:	17fffec7 	b	9ec8 <pthread_mutex_timedlock+0x27c>
    a3b0:	52800dd3 	mov	w19, #0x6e                  	// #110
    a3b4:	17fffffa 	b	a39c <pthread_mutex_timedlock+0x750>
    a3b8:	52800020 	mov	w0, #0x1                   	// #1
    a3bc:	885ffe63 	ldaxr	w3, [x19]
    a3c0:	6b1f007f 	cmp	w3, wzr
    a3c4:	54000061 	b.ne	a3d0 <pthread_mutex_timedlock+0x784>
    a3c8:	88017e60 	stxr	w1, w0, [x19]
    a3cc:	35ffff81 	cbnz	w1, a3bc <pthread_mutex_timedlock+0x770>
    a3d0:	54ffe020 	b.eq	9fd4 <pthread_mutex_timedlock+0x388>
    a3d4:	b9401262 	ldr	w2, [x19,#16]
    a3d8:	aa1303e0 	mov	x0, x19
    a3dc:	aa1503e1 	mov	x1, x21
    a3e0:	b90083a3 	str	w3, [x29,#128]
    a3e4:	12190042 	and	w2, w2, #0x80
    a3e8:	94001512 	bl	f830 <__lll_timedlock_wait>
    a3ec:	2a0003e2 	mov	w2, w0
    a3f0:	17fffefa 	b	9fd8 <pthread_mutex_timedlock+0x38c>
    a3f4:	12000463 	and	w3, w3, #0x3
    a3f8:	52800460 	mov	w0, #0x23                  	// #35
    a3fc:	7100087f 	cmp	w3, #0x2
    a400:	54ffd640 	b.eq	9ec8 <pthread_mutex_timedlock+0x27c>
    a404:	7100047f 	cmp	w3, #0x1
    a408:	54ffe521 	b.ne	a0ac <pthread_mutex_timedlock+0x460>
    a40c:	17ffff00 	b	a00c <pthread_mutex_timedlock+0x3c0>
    a410:	2a0203e0 	mov	w0, w2
    a414:	17fffead 	b	9ec8 <pthread_mutex_timedlock+0x27c>
    a418:	aa1403e1 	mov	x1, x20
    a41c:	52800020 	mov	w0, #0x1                   	// #1
    a420:	b9000660 	str	w0, [x19,#4]
    a424:	12b00000 	mov	w0, #0x7fffffff            	// #2147483647
    a428:	b9000a60 	str	w0, [x19,#8]
    a42c:	91008263 	add	x3, x19, #0x20
    a430:	b2400064 	orr	x4, x3, #0x1
    a434:	52801040 	mov	w0, #0x82                  	// #130
    a438:	f84e0c22 	ldr	x2, [x1,#224]!
    a43c:	927ff845 	and	x5, x2, #0xfffffffffffffffe
    a440:	f81f80a3 	str	x3, [x5,#-8]
    a444:	f9001262 	str	x2, [x19,#32]
    a448:	f9000e61 	str	x1, [x19,#24]
    a44c:	f9007284 	str	x4, [x20,#224]
    a450:	f9007a9f 	str	xzr, [x20,#240]
    a454:	17fffe9d 	b	9ec8 <pthread_mutex_timedlock+0x27c>
    a458:	d2800021 	mov	x1, #0x1                   	// #1
    a45c:	aa1303e0 	mov	x0, x19
    a460:	aa0103e2 	mov	x2, x1
    a464:	d2800003 	mov	x3, #0x0                   	// #0
    a468:	d2800c48 	mov	x8, #0x62                  	// #98
    a46c:	d4000001 	svc	#0x0
    a470:	17ffff89 	b	a294 <pthread_mutex_timedlock+0x648>
    a474:	f9007a9f 	str	xzr, [x20,#240]
    a478:	52800460 	mov	w0, #0x23                  	// #35
    a47c:	17fffe93 	b	9ec8 <pthread_mutex_timedlock+0x27c>
    a480:	aa1403e1 	mov	x1, x20
    a484:	52800020 	mov	w0, #0x1                   	// #1
    a488:	b9000660 	str	w0, [x19,#4]
    a48c:	12b00000 	mov	w0, #0x7fffffff            	// #2147483647
    a490:	b9000a60 	str	w0, [x19,#8]
    a494:	52801040 	mov	w0, #0x82                  	// #130
    a498:	f84e0c22 	ldr	x2, [x1,#224]!
    a49c:	927ff843 	and	x3, x2, #0xfffffffffffffffe
    a4a0:	f81f8078 	str	x24, [x3,#-8]
    a4a4:	f9001262 	str	x2, [x19,#32]
    a4a8:	f9000e61 	str	x1, [x19,#24]
    a4ac:	f9007298 	str	x24, [x20,#224]
    a4b0:	f9007a9f 	str	xzr, [x20,#240]
    a4b4:	17fffe85 	b	9ec8 <pthread_mutex_timedlock+0x27c>
    a4b8:	4b0103e0 	neg	w0, w1
    a4bc:	17fffe83 	b	9ec8 <pthread_mutex_timedlock+0x27c>
    a4c0:	3100069f 	cmn	w20, #0x1
    a4c4:	528002c0 	mov	w0, #0x16                  	// #22
    a4c8:	54ffd000 	b.eq	9ec8 <pthread_mutex_timedlock+0x27c>
    a4cc:	1e270288 	fmov	s8, w20
    a4d0:	2a0003f3 	mov	w19, w0
    a4d4:	17ffffb2 	b	a39c <pthread_mutex_timedlock+0x750>
    a4d8:	d2800002 	mov	x2, #0x0                   	// #0
    a4dc:	b900067f 	str	wzr, [x19,#4]
    a4e0:	aa1303e0 	mov	x0, x19
    a4e4:	d28000e1 	mov	x1, #0x7                   	// #7
    a4e8:	aa0203e3 	mov	x3, x2
    a4ec:	d2800c48 	mov	x8, #0x62                  	// #98
    a4f0:	d4000001 	svc	#0x0
    a4f4:	52801060 	mov	w0, #0x83                  	// #131
    a4f8:	f9007a82 	str	x2, [x20,#240]
    a4fc:	17fffe73 	b	9ec8 <pthread_mutex_timedlock+0x27c>
    a500:	d2994002 	mov	x2, #0xca00                	// #51712
    a504:	d1000400 	sub	x0, x0, #0x1
    a508:	f2a77342 	movk	x2, #0x3b9a, lsl #16
    a50c:	f9003ba0 	str	x0, [x29,#112]
    a510:	8b020021 	add	x1, x1, x2
    a514:	17fffe56 	b	9e6c <pthread_mutex_timedlock+0x220>

000000000000a518 <__pthread_mutex_unlock_full>:
    a518:	a9be7bfd 	stp	x29, x30, [sp,#-32]!
    a51c:	910003fd 	mov	x29, sp
    a520:	b9401005 	ldr	w5, [x0,#16]
    a524:	120018a2 	and	w2, w5, #0x7f
    a528:	51004042 	sub	w2, w2, #0x10
    a52c:	7100cc5f 	cmp	w2, #0x33
    a530:	540000a9 	b.ls	a544 <__pthread_mutex_unlock_full+0x2c>
    a534:	528002c4 	mov	w4, #0x16                  	// #22
    a538:	2a0403e0 	mov	w0, w4
    a53c:	a8c27bfd 	ldp	x29, x30, [sp],#32
    a540:	d65f03c0 	ret
    a544:	90000043 	adrp	x3, 12000 <__pthread_current_priority+0xa8>
    a548:	9130a063 	add	x3, x3, #0xc28
    a54c:	78625862 	ldrh	w2, [x3,w2,uxtw #1]
    a550:	10000063 	adr	x3, a55c <__pthread_mutex_unlock_full+0x44>
    a554:	8b22a862 	add	x2, x3, w2, sxth #2
    a558:	d61f0040 	br	x2
    a55c:	d53bd045 	mrs	x5, tpidr_el0
    a560:	b9400002 	ldr	w2, [x0]
    a564:	d11bc0a5 	sub	x5, x5, #0x6f0
    a568:	12007444 	and	w4, w2, #0x3fffffff
    a56c:	b940d0a3 	ldr	w3, [x5,#208]
    a570:	6b03009f 	cmp	w4, w3
    a574:	54001761 	b.ne	a860 <__pthread_mutex_unlock_full+0x348>
    a578:	34001742 	cbz	w2, a860 <__pthread_mutex_unlock_full+0x348>
    a57c:	b9400803 	ldr	w3, [x0,#8]
    a580:	12b00002 	mov	w2, #0x7fffffff            	// #2147483647
    a584:	6b02007f 	cmp	w3, w2
    a588:	321f77e2 	mov	w2, #0x7ffffffe            	// #2147483646
    a58c:	1a8213e2 	csel	w2, wzr, w2, ne
    a590:	14000095 	b	a7e4 <__pthread_mutex_unlock_full+0x2cc>
    a594:	d53bd042 	mrs	x2, tpidr_el0
    a598:	b9400803 	ldr	w3, [x0,#8]
    a59c:	d11bc042 	sub	x2, x2, #0x6f0
